	.intel_syntax noprefix

.section .text
.balign 16

.globl HISREGFREE
HISREGFREE:
.type HISREGFREE, @function
.cfi_startproc
push ebp
.cfi_def_cfa_offset 8
.cfi_offset 5, -8
mov ebp, esp
.cfi_def_cfa_register 5
sub esp, 4
push ebx
mov dword ptr [ebp-4], 0
.L_0098:
cmp dword ptr [ebp+8], 0
jne .L_009B
cmp dword ptr [ebp+12], 4
je .L_009E
.L_009F:
cmp dword ptr [ebp+12], 2
je .L_009E
.L_00A0:
cmp dword ptr [ebp+12], 1
jne .L_009D
.L_009E:
mov eax, 1
mov cl, byte ptr [ebp+12]
sal eax, cl
and eax, dword ptr [EMIT+132]
test eax, eax
jne .L_00A2
mov dword ptr [ebp-4], 0
jmp .L_0099
.L_00A2:
.L_00A1:
.L_009D:
.L_009C:
.L_009B:
.L_009A:
mov eax, dword ptr [ebp+8]
sal eax, 2
mov ebx, offset EMIT
add ebx, eax
mov eax, 1
mov cl, byte ptr [ebp+12]
sal eax, cl
or dword ptr [ebx+132], eax
mov eax, dword ptr [ebp+8]
sal eax, 2
mov ebx, dword ptr [EMIT+128]
add ebx, eax
mov eax, 1
mov cl, byte ptr [ebp+12]
sal eax, cl
and eax, dword ptr [ebx+40]
test eax, eax
setne al
shr eax, 1
sbb eax, eax
mov dword ptr [ebp-4], eax
.L_0099:
mov eax, dword ptr [ebp-4]
pop ebx
mov esp, ebp
pop ebp
.cfi_restore 5
.cfi_def_cfa 4, 4
ret
.size HISREGFREE, .-HISREGFREE
.cfi_endproc
.balign 16

.globl HFINDREGNOTINVREG
HFINDREGNOTINVREG:
.type HFINDREGNOTINVREG, @function
.cfi_startproc
push ebp
.cfi_def_cfa_offset 8
.cfi_offset 5, -8
mov ebp, esp
.cfi_def_cfa_register 5
sub esp, 36
push ebx
mov dword ptr [ebp-4], 0
.L_00A4:
mov dword ptr [ebp-4], -1
mov dword ptr [ebp-12], -1
mov eax, dword ptr [ebp+8]
mov ebx, dword ptr [eax]
mov dword ptr [ebp-24], ebx
cmp dword ptr [ebp-24], 4
jne .L_00A8
.L_00A9:
mov ebx, dword ptr [ebp+8]
mov eax, dword ptr [ebx+12]
mov dword ptr [ebp-12], eax
jmp .L_00A6
.L_00A8:
cmp dword ptr [ebp-24], 2
je .L_00AB
.L_00AC:
cmp dword ptr [ebp-24], 3
jne .L_00AA
.L_00AB:
mov eax, dword ptr [ebp+8]
cmp dword ptr [eax+48], 0
je .L_00AE
mov eax, dword ptr [ebp+8]
mov ebx, dword ptr [eax+48]
cmp dword ptr [ebx], 4
jne .L_00B0
mov ebx, dword ptr [ebp+8]
mov eax, dword ptr [ebx+48]
mov ebx, dword ptr [eax+12]
mov dword ptr [ebp-12], ebx
.L_00B0:
.L_00AF:
.L_00AE:
.L_00AD:
.L_00AA:
.L_00A6:
mov dword ptr [ebp-16], -1
mov ebx, dword ptr [ebp+8]
cmp dword ptr [ebx+52], 0
je .L_00B2
mov ebx, dword ptr [ebp+8]
mov eax, dword ptr [ebx+52]
cmp dword ptr [eax], 4
jne .L_00B4
mov eax, dword ptr [ebp+8]
mov ebx, dword ptr [eax+52]
mov eax, dword ptr [ebx+12]
mov dword ptr [ebp-16], eax
.L_00B4:
.L_00B3:
.L_00B2:
.L_00B1:
sub esp, 12
push dword ptr [EMIT+8]
mov eax, dword ptr [EMIT+8]
call dword ptr [eax+24]
add esp, 16
mov dword ptr [ebp-20], eax
cmp dword ptr [ebp-16], -1
jne .L_00B6
cmp dword ptr [ebp+12], 0
jne .L_00B8
mov eax, dword ptr [ebp-20]
dec eax
mov dword ptr [ebp-24], eax
jmp .L_00B9
.L_00BC:
mov eax, dword ptr [ebp-12]
cmp dword ptr [ebp-24], eax
je .L_00BE
mov eax, dword ptr [ebp-24]
mov dword ptr [ebp-4], eax
sub esp, 8
push dword ptr [ebp-24]
push 0
call HISREGFREE
add esp, 16
test eax, eax
je .L_00C0
jmp .L_00BB
.L_00C0:
.L_00BF:
.L_00BE:
.L_00BD:
.L_00BA:
dec dword ptr [ebp-24]
.L_00B9:
cmp dword ptr [ebp-24], 0
jge .L_00BC
.L_00BB:
jmp .L_00B7
.L_00B8:
mov eax, dword ptr [ebp-20]
dec eax
mov dword ptr [ebp-24], eax
jmp .L_00C1
.L_00C4:
mov eax, dword ptr [ebp-12]
cmp dword ptr [ebp-24], eax
je .L_00C6
cmp dword ptr [ebp-24], 2
je .L_00C8
cmp dword ptr [ebp-24], 1
je .L_00CA
mov eax, dword ptr [ebp-24]
mov dword ptr [ebp-4], eax
sub esp, 8
push dword ptr [ebp-24]
push 0
call HISREGFREE
add esp, 16
test eax, eax
je .L_00CC
jmp .L_00C3
.L_00CC:
.L_00CB:
.L_00CA:
.L_00C9:
.L_00C8:
.L_00C7:
.L_00C6:
.L_00C5:
.L_00C2:
dec dword ptr [ebp-24]
.L_00C1:
cmp dword ptr [ebp-24], 0
jge .L_00C4
.L_00C3:
.L_00B7:
jmp .L_00B5
.L_00B6:
cmp dword ptr [ebp+12], 0
jne .L_00CE
mov eax, dword ptr [ebp-20]
dec eax
mov dword ptr [ebp-24], eax
jmp .L_00CF
.L_00D2:
mov eax, dword ptr [ebp-12]
cmp eax, dword ptr [ebp-24]
setne al
shr eax, 1
sbb eax, eax
mov ebx, dword ptr [ebp-16]
cmp ebx, dword ptr [ebp-24]
setne bl
shr ebx, 1
sbb ebx, ebx
and eax, ebx
je .L_00D4
mov ebx, dword ptr [ebp-24]
mov dword ptr [ebp-4], ebx
sub esp, 8
push dword ptr [ebp-24]
push 0
call HISREGFREE
add esp, 16
test eax, eax
je .L_00D6
jmp .L_00D1
.L_00D6:
.L_00D5:
.L_00D4:
.L_00D3:
.L_00D0:
dec dword ptr [ebp-24]
.L_00CF:
cmp dword ptr [ebp-24], 0
jge .L_00D2
.L_00D1:
jmp .L_00CD
.L_00CE:
mov eax, dword ptr [ebp-20]
dec eax
mov dword ptr [ebp-8], eax
jmp .L_00D7
.L_00DA:
mov eax, dword ptr [ebp-12]
cmp eax, dword ptr [ebp-8]
setne al
shr eax, 1
sbb eax, eax
mov ebx, dword ptr [ebp-16]
cmp ebx, dword ptr [ebp-8]
setne bl
shr ebx, 1
sbb ebx, ebx
and eax, ebx
je .L_00DC
cmp dword ptr [ebp-8], 2
je .L_00DE
cmp dword ptr [ebp-8], 1
je .L_00E0
mov ebx, dword ptr [ebp-8]
mov dword ptr [ebp-4], ebx
sub esp, 8
push dword ptr [ebp-8]
push 0
call HISREGFREE
add esp, 16
test eax, eax
je .L_00E2
jmp .L_00D9
.L_00E2:
.L_00E1:
.L_00E0:
.L_00DF:
.L_00DE:
.L_00DD:
.L_00DC:
.L_00DB:
.L_00D8:
dec dword ptr [ebp-8]
.L_00D7:
cmp dword ptr [ebp-8], 0
jge .L_00DA
.L_00D9:
.L_00CD:
.L_00B5:
.L_00A5:
mov eax, dword ptr [ebp-4]
pop ebx
mov esp, ebp
pop ebp
.cfi_restore 5
.cfi_def_cfa 4, 4
ret
.size HFINDREGNOTINVREG, .-HFINDREGNOTINVREG
.cfi_endproc
.balign 16

.globl HFINDFREEREG
HFINDFREEREG:
.type HFINDFREEREG, @function
.cfi_startproc
push ebp
.cfi_def_cfa_offset 8
.cfi_offset 5, -8
mov ebp, esp
.cfi_def_cfa_register 5
sub esp, 20
push ebx
mov dword ptr [ebp-4], 0
.L_00E7:
mov dword ptr [ebp-4], -1
sub esp, 12
mov eax, dword ptr [ebp+8]
sal eax, 2
mov ebx, offset EMIT
add ebx, eax
push dword ptr [ebx+8]
mov ebx, dword ptr [ebp+8]
sal ebx, 2
mov eax, offset EMIT
add eax, ebx
mov ebx, dword ptr [eax+8]
call dword ptr [ebx+24]
add esp, 16
dec eax
mov dword ptr [ebp-8], eax
jmp .L_00E9
.L_00EC:
sub esp, 8
push dword ptr [ebp-8]
push dword ptr [ebp+8]
call HISREGFREE
add esp, 16
test eax, eax
je .L_00EE
mov eax, dword ptr [ebp-8]
mov dword ptr [ebp-4], eax
jmp .L_00E8
.L_00EE:
.L_00ED:
.L_00EA:
dec dword ptr [ebp-8]
.L_00E9:
cmp dword ptr [ebp-8], 0
jge .L_00EC
.L_00EB:
.L_00E8:
mov eax, dword ptr [ebp-4]
pop ebx
mov esp, ebp
pop ebp
.cfi_restore 5
.cfi_def_cfa 4, 4
ret
.size HFINDFREEREG, .-HFINDFREEREG
.cfi_endproc
.balign 16

.globl HISREGINVREG
HISREGINVREG:
.type HISREGINVREG, @function
.cfi_startproc
push ebp
.cfi_def_cfa_offset 8
.cfi_offset 5, -8
mov ebp, esp
.cfi_def_cfa_register 5
sub esp, 20
push ebx
mov dword ptr [ebp-4], 0
.L_00EF:
mov dword ptr [ebp-4], 0
mov eax, dword ptr [ebp+8]
mov ebx, dword ptr [eax]
mov dword ptr [ebp-8], ebx
cmp dword ptr [ebp-8], 4
jne .L_00F3
.L_00F4:
mov ebx, dword ptr [ebp+8]
mov eax, dword ptr [ebp+12]
cmp dword ptr [ebx+12], eax
jne .L_00F6
mov dword ptr [ebp-4], -1
jmp .L_00F0
.L_00F6:
.L_00F5:
jmp .L_00F1
.L_00F3:
cmp dword ptr [ebp-8], 2
je .L_00F8
.L_00F9:
cmp dword ptr [ebp-8], 3
jne .L_00F7
.L_00F8:
mov eax, dword ptr [ebp+8]
cmp dword ptr [eax+48], 0
je .L_00FB
mov eax, dword ptr [ebp+8]
mov ebx, dword ptr [eax+48]
cmp dword ptr [ebx], 4
jne .L_00FD
mov ebx, dword ptr [ebp+8]
mov eax, dword ptr [ebx+48]
mov ebx, dword ptr [ebp+12]
cmp dword ptr [eax+12], ebx
jne .L_00FF
mov dword ptr [ebp-4], -1
jmp .L_00F0
.L_00FF:
.L_00FE:
.L_00FD:
.L_00FC:
.L_00FB:
.L_00FA:
.L_00F7:
.L_00F1:
mov ebx, dword ptr [ebp+8]
cmp dword ptr [ebx+52], 0
je .L_0101
mov ebx, dword ptr [ebp+8]
mov eax, dword ptr [ebx+52]
cmp dword ptr [eax], 4
jne .L_0103
mov eax, dword ptr [ebp+8]
mov ebx, dword ptr [eax+52]
mov eax, dword ptr [ebp+12]
cmp dword ptr [ebx+12], eax
jne .L_0105
mov dword ptr [ebp-4], -1
.L_0105:
.L_0104:
.L_0103:
.L_0102:
.L_0101:
.L_0100:
.L_00F0:
mov eax, dword ptr [ebp-4]
pop ebx
mov esp, ebp
pop ebp
.cfi_restore 5
.cfi_def_cfa 4, 4
ret
.size HISREGINVREG, .-HISREGINVREG
.cfi_endproc
.balign 16

.globl HGETREGNAME
HGETREGNAME:
.type HGETREGNAME, @function
.cfi_startproc
push ebp
.cfi_def_cfa_offset 8
.cfi_offset 5, -8
mov ebp, esp
.cfi_def_cfa_register 5
sub esp, 20
push ebx
mov dword ptr [ebp-4], 0
.L_0106:
cmp dword ptr [ebp+12], -1
jne .L_0109
mov dword ptr [ebp-4], 0
jmp .L_0108
.L_0109:
mov eax, dword ptr [ebp+8]
and eax, 480
je .L_010A
mov dword ptr [ebp-12], 24
jmp .L_010C
.L_010A:
mov eax, dword ptr [ebp+8]
and eax, 31
mov dword ptr [ebp-12], eax
.L_010C:
mov eax, dword ptr [ebp-12]
sal eax, 4
mov ebx, dword ptr [DTYPETB+eax]
mov dword ptr [ebp-8], ebx
mov ebx, dword ptr [ebp-8]
sal ebx, 3
add ebx, dword ptr [ebp+12]
lea eax, [RNAMETB+ebx*8]
mov dword ptr [ebp-4], eax
.L_0108:
.L_0107:
mov eax, dword ptr [ebp-4]
pop ebx
mov esp, ebp
pop ebp
.cfi_restore 5
.cfi_def_cfa 4, 4
ret
.size HGETREGNAME, .-HGETREGNAME
.cfi_endproc
.balign 16

.globl HPREPOPERAND
HPREPOPERAND:
.type HPREPOPERAND, @function
.cfi_startproc
push ebp
.cfi_def_cfa_offset 8
.cfi_offset 5, -8
mov ebp, esp
.cfi_def_cfa_register 5
sub esp, 36
push ebx
.L_0128:
cmp dword ptr [ebp+8], 0
jne .L_012B
sub esp, 12
push 0
push 1
push offset Lt_0000
push -1
push dword ptr [ebp+12]
call fb_StrAssign
add esp, 32
jmp .L_0129
.L_012B:
.L_012A:
cmp dword ptr [ebp+16], -2147483648
jne .L_012D
mov eax, dword ptr [ebp+8]
mov ebx, dword ptr [eax+4]
mov dword ptr [ebp+16], ebx
.L_012D:
.L_012C:
mov ebx, dword ptr [ebp+8]
mov eax, dword ptr [ebx]
mov dword ptr [ebp-4], eax
jmp .L_012F
.L_0131:
cmp dword ptr [ebp+28], 0
je .L_0133
sub esp, 12
push 0
push 12
mov eax, dword ptr [ebp+16]
sal eax, 4
lea ebx, [DTYPETB+eax+4]
push ebx
push -1
push dword ptr [ebp+12]
call fb_StrAssign
add esp, 32
sub esp, 12
push 0
push 3
push offset Lt_0134
push -1
push dword ptr [ebp+12]
call fb_StrConcatByref
add esp, 32
jmp .L_0132
.L_0133:
sub esp, 12
push 0
push 2
push offset Lt_0135
push -1
push dword ptr [ebp+12]
call fb_StrAssign
add esp, 32
.L_0132:
mov ebx, dword ptr [ebp+8]
cmp dword ptr [ebx], 1
jne .L_0137
sub esp, 12
mov ebx, dword ptr [ebp+8]
push dword ptr [ebx+32]
call SYMBGETMANGLEDNAME
add esp, 16
mov dword ptr [Lt_0158], eax
jmp .L_0136
.L_0137:
sub esp, 12
push dword ptr [ebp+8]
call HGETIDXNAME
add esp, 16
mov dword ptr [Lt_0158], eax
.L_0136:
cmp dword ptr [Lt_0158], 0
je .L_0139
sub esp, 12
push 0
push -1
sub esp, 8
push 0
push dword ptr [Lt_0158]
push -1
push dword ptr [ebp+12]
mov dword ptr [ebp-16], 0
mov dword ptr [ebp-12], 0
mov dword ptr [ebp-8], 0
lea eax, [ebp-16]
push eax
call fb_StrConcat
add esp, 28
push eax
push -1
push dword ptr [ebp+12]
call fb_StrAssign
add esp, 32
.L_0139:
.L_0138:
mov ebx, dword ptr [ebp+20]
mov eax, ebx
sar eax, 31
mov ecx, dword ptr [ebp+8]
add ebx, dword ptr [ecx+36]
adc eax, dword ptr [ecx+40]
mov ecx, ebx
mov dword ptr [ebp+20], ecx
cmp dword ptr [ebp+24], 0
je .L_013C
add dword ptr [ebp+20], 4
.L_013C:
.L_013B:
cmp dword ptr [ebp+20], 0
jle .L_013E
cmp dword ptr [Lt_0158], 0
je .L_0140
sub esp, 12
push 0
push 2
push offset Lt_0115
push -1
push dword ptr [ebp+12]
call fb_StrConcatByref
add esp, 32
.L_0140:
.L_013F:
sub esp, 12
push 0
push -1
sub esp, 8
push dword ptr [ebp+20]
call fb_IntToStr
add esp, 12
push eax
push -1
push dword ptr [ebp+12]
call fb_StrConcatByref
add esp, 32
jmp .L_013D
.L_013E:
cmp dword ptr [ebp+20], 0
jge .L_0141
sub esp, 12
push 0
push -1
sub esp, 8
push dword ptr [ebp+20]
call fb_IntToStr
add esp, 12
push eax
push -1
push dword ptr [ebp+12]
call fb_StrConcatByref
add esp, 32
jmp .L_013D
.L_0141:
cmp dword ptr [Lt_0158], 0
jne .L_0143
sub esp, 12
push 0
push 2
push offset Lt_0006
push -1
push dword ptr [ebp+12]
call fb_StrConcatByref
add esp, 32
.L_0143:
.L_0142:
.L_013D:
sub esp, 12
push 0
push 2
push offset Lt_0144
push -1
push dword ptr [ebp+12]
call fb_StrConcatByref
add esp, 32
jmp .L_012E
.L_0145:
sub esp, 12
push 0
push 8
push offset Lt_0146
push -1
push dword ptr [ebp+12]
call fb_StrAssign
add esp, 32
sub esp, 12
push 0
push -1
sub esp, 8
push 0
sub esp, 12
mov eax, dword ptr [ebp+8]
push dword ptr [eax+32]
call SYMBGETMANGLEDNAME
add esp, 16
push eax
push -1
push dword ptr [ebp+12]
mov dword ptr [ebp-16], 0
mov dword ptr [ebp-12], 0
mov dword ptr [ebp-8], 0
lea eax, [ebp-16]
push eax
call fb_StrConcat
add esp, 28
push eax
push -1
push dword ptr [ebp+12]
call fb_StrAssign
add esp, 32
mov eax, dword ptr [ebp+8]
cmp dword ptr [eax+40], 0
jne .L_0159
cmp dword ptr [eax+36], 0
je .L_0149
.L_0159:
sub esp, 12
push 0
push 4
push offset Lt_014A
push -1
push dword ptr [ebp+12]
call fb_StrConcatByref
add esp, 32
sub esp, 12
push 0
push -1
sub esp, 8
push -1
sub esp, 8
mov eax, dword ptr [ebp+8]
push dword ptr [eax+40]
push dword ptr [eax+36]
call fb_LongintToStr
add esp, 16
push eax
push -1
push dword ptr [ebp+12]
mov dword ptr [ebp-28], 0
mov dword ptr [ebp-24], 0
mov dword ptr [ebp-20], 0
lea eax, [ebp-28]
push eax
call fb_StrConcat
add esp, 28
push eax
push -1
push dword ptr [ebp+12]
call fb_StrAssign
add esp, 32
.L_0149:
.L_0148:
jmp .L_012E
.L_014C:
cmp dword ptr [ebp+24], 0
jne .L_014E
sub esp, 12
push 0
push 0
sub esp, 4
mov eax, dword ptr [ebp+8]
push dword ptr [eax+12]
push dword ptr [ebp+16]
call HGETREGNAME
add esp, 12
push eax
push -1
push dword ptr [ebp+12]
call fb_StrAssign
add esp, 32
jmp .L_014D
.L_014E:
sub esp, 12
push 0
push 0
sub esp, 4
mov eax, dword ptr [ebp+8]
mov ecx, dword ptr [eax+52]
push dword ptr [ecx+12]
push dword ptr [ebp+16]
call HGETREGNAME
add esp, 12
push eax
push -1
push dword ptr [ebp+12]
call fb_StrAssign
add esp, 32
.L_014D:
jmp .L_012E
.L_014F:
cmp dword ptr [ebp+24], 0
jne .L_0151
mov eax, dword ptr [ebp+8]
mov ebx, dword ptr [eax+24]
mov ecx, dword ptr [eax+28]
mov dword ptr [Lt_015A], ebx
mov dword ptr [Lt_015A+4], ecx
jmp .L_0150
.L_0151:
mov ebx, dword ptr [ebp+8]
mov ecx, dword ptr [ebx+52]
mov eax, dword ptr [ecx+24]
mov ebx, dword ptr [ecx+28]
mov dword ptr [Lt_015A], eax
mov dword ptr [Lt_015A+4], ebx
.L_0150:
cmp dword ptr [ebp+16], 1
jne .L_0153
cmp dword ptr [Lt_015A+4], 0
jne .L_015B
cmp dword ptr [Lt_015A], 0
je .L_0155
.L_015B:
sub esp, 12
push 0
push 2
push offset Lt_0004
push -1
push dword ptr [ebp+12]
call fb_StrAssign
add esp, 32
jmp .L_0154
.L_0155:
sub esp, 12
push 0
push 2
push offset Lt_0006
push -1
push dword ptr [ebp+12]
call fb_StrAssign
add esp, 32
.L_0154:
jmp .L_0152
.L_0153:
sub esp, 12
push 0
push -1
sub esp, 4
push dword ptr [Lt_015A+4]
push dword ptr [Lt_015A]
call fb_LongintToStr
add esp, 12
push eax
push -1
push dword ptr [ebp+12]
call fb_StrAssign
add esp, 32
.L_0152:
jmp .L_012E
.L_0156:
sub esp, 12
push 0
push 1
push offset Lt_0000
push -1
push dword ptr [ebp+12]
call fb_StrAssign
add esp, 32
jmp .L_012E
.L_012F:
cmp dword ptr [ebp-4], 5
ja .L_0156
mov eax, dword ptr [ebp-4]
jmp dword ptr [.L_0157+eax*4]
.L_0157:
.int .L_014F
.int .L_0131
.int .L_0131
.int .L_0131
.int .L_014C
.int .L_0145
.L_012E:
.L_0129:
pop ebx
mov esp, ebp
pop ebp
.cfi_restore 5
.cfi_def_cfa 4, 4
ret
.size HPREPOPERAND, .-HPREPOPERAND
.cfi_endproc

.section .bss
.balign 4
	.lcomm	Lt_0158,4
.balign 4
	.lcomm	Lt_015A,8

.section .text
.balign 16

.globl HPREPOPERAND64
HPREPOPERAND64:
.type HPREPOPERAND64, @function
.cfi_startproc
push ebp
.cfi_def_cfa_offset 8
.cfi_offset 5, -8
mov ebp, esp
.cfi_def_cfa_register 5
sub esp, 8
.L_015C:
sub esp, 8
push -1
push 0
push 0
push 9
push dword ptr [ebp+12]
push dword ptr [ebp+8]
call HPREPOPERAND
add esp, 32
sub esp, 8
push -1
push -1
push 0
push 8
push dword ptr [ebp+16]
push dword ptr [ebp+8]
call HPREPOPERAND
add esp, 32
.L_015D:
mov esp, ebp
pop ebp
.cfi_restore 5
.cfi_def_cfa 4, 4
ret
.size HPREPOPERAND64, .-HPREPOPERAND64
.cfi_endproc
.balign 16

.globl OUTP
OUTP:
.type OUTP, @function
.cfi_startproc
push ebp
.cfi_def_cfa_offset 8
.cfi_offset 5, -8
mov ebp, esp
.cfi_def_cfa_register 5
sub esp, 24
.L_0164:
cmp dword ptr [ENV+148], 0
je .L_0167
sub esp, 12
push 0
push 2
push offset Lt_0168
push -1
push offset Lt_016B
call fb_StrAssign
add esp, 32
sub esp, 12
push 0
push -1
sub esp, 8
push 0
push dword ptr [ebp+8]
push -1
push offset Lt_016B
mov dword ptr [ebp-12], 0
mov dword ptr [ebp-8], 0
mov dword ptr [ebp-4], 0
lea eax, [ebp-12]
push eax
call fb_StrConcat
add esp, 28
push eax
push -1
push offset Lt_016B
call fb_StrAssign
add esp, 32
jmp .L_0166
.L_0167:
sub esp, 12
push 0
push 0
push dword ptr [ebp+8]
push -1
push offset Lt_016B
call fb_StrAssign
add esp, 32
.L_0166:
sub esp, 12
push 0
push 2
push offset Lt_016A
push -1
push offset Lt_016B
call fb_StrConcatAssign
add esp, 32
sub esp, 8
push -1
push offset Lt_016B
call fb_StrLen
add esp, 8
push eax
push dword ptr [Lt_016B]
call OUTEX
add esp, 16
.L_0165:
mov esp, ebp
pop ebp
.cfi_restore 5
.cfi_def_cfa 4, 4
ret
.size OUTP, .-OUTP
.cfi_endproc

.section .bss
.balign 4
	.lcomm	Lt_016B,12

.section .text
.balign 16

.globl HBRANCH
HBRANCH:
.type HBRANCH, @function
.cfi_startproc
push ebp
.cfi_def_cfa_offset 8
.cfi_offset 5, -8
mov ebp, esp
.cfi_def_cfa_register 5
sub esp, 24
.L_016C:
sub esp, 12
push 0
push 0
push dword ptr [ebp+8]
push -1
push offset Lt_0170
call fb_StrAssign
add esp, 32
sub esp, 12
push 0
push 2
push offset Lt_016E
push -1
push offset Lt_0170
call fb_StrConcatAssign
add esp, 32
sub esp, 12
push 0
push -1
sub esp, 8
push 0
push dword ptr [ebp+12]
push -1
push offset Lt_0170
mov dword ptr [ebp-12], 0
mov dword ptr [ebp-8], 0
mov dword ptr [ebp-4], 0
lea eax, [ebp-12]
push eax
call fb_StrConcat
add esp, 28
push eax
push -1
push offset Lt_0170
call fb_StrAssign
add esp, 32
sub esp, 12
push dword ptr [Lt_0170]
call OUTP
add esp, 16
.L_016D:
mov esp, ebp
pop ebp
.cfi_restore 5
.cfi_def_cfa 4, 4
ret
.size HBRANCH, .-HBRANCH
.cfi_endproc

.section .bss
.balign 4
	.lcomm	Lt_0170,12

.section .text
.balign 16

.globl HPUSH
HPUSH:
.type HPUSH, @function
.cfi_startproc
push ebp
.cfi_def_cfa_offset 8
.cfi_offset 5, -8
mov ebp, esp
.cfi_def_cfa_register 5
sub esp, 24
.L_0171:
sub esp, 12
push 0
push 6
push offset Lt_0173
push -1
push offset Lt_0175
call fb_StrAssign
add esp, 32
sub esp, 12
push 0
push -1
sub esp, 8
push 0
push dword ptr [ebp+8]
push -1
push offset Lt_0175
mov dword ptr [ebp-12], 0
mov dword ptr [ebp-8], 0
mov dword ptr [ebp-4], 0
lea eax, [ebp-12]
push eax
call fb_StrConcat
add esp, 28
push eax
push -1
push offset Lt_0175
call fb_StrAssign
add esp, 32
sub esp, 12
push dword ptr [Lt_0175]
call OUTP
add esp, 16
.L_0172:
mov esp, ebp
pop ebp
.cfi_restore 5
.cfi_def_cfa 4, 4
ret
.size HPUSH, .-HPUSH
.cfi_endproc

.section .bss
.balign 4
	.lcomm	Lt_0175,12

.section .text
.balign 16

.globl HPOP
HPOP:
.type HPOP, @function
.cfi_startproc
push ebp
.cfi_def_cfa_offset 8
.cfi_offset 5, -8
mov ebp, esp
.cfi_def_cfa_register 5
sub esp, 24
.L_0176:
sub esp, 12
push 0
push 5
push offset Lt_0178
push -1
push offset Lt_017A
call fb_StrAssign
add esp, 32
sub esp, 12
push 0
push -1
sub esp, 8
push 0
push dword ptr [ebp+8]
push -1
push offset Lt_017A
mov dword ptr [ebp-12], 0
mov dword ptr [ebp-8], 0
mov dword ptr [ebp-4], 0
lea eax, [ebp-12]
push eax
call fb_StrConcat
add esp, 28
push eax
push -1
push offset Lt_017A
call fb_StrAssign
add esp, 32
sub esp, 12
push dword ptr [Lt_017A]
call OUTP
add esp, 16
.L_0177:
mov esp, ebp
pop ebp
.cfi_restore 5
.cfi_def_cfa 4, 4
ret
.size HPOP, .-HPOP
.cfi_endproc

.section .bss
.balign 4
	.lcomm	Lt_017A,12

.section .text
.balign 16

.globl HMOV
HMOV:
.type HMOV, @function
.cfi_startproc
push ebp
.cfi_def_cfa_offset 8
.cfi_offset 5, -8
mov ebp, esp
.cfi_def_cfa_register 5
sub esp, 24
.L_017B:
sub esp, 12
push 0
push 5
push offset Lt_017D
push -1
push offset Lt_0180
call fb_StrAssign
add esp, 32
sub esp, 12
push 0
push -1
sub esp, 8
push 0
push dword ptr [ebp+8]
push -1
push offset Lt_0180
mov dword ptr [ebp-12], 0
mov dword ptr [ebp-8], 0
mov dword ptr [ebp-4], 0
lea eax, [ebp-12]
push eax
call fb_StrConcat
add esp, 28
push eax
push -1
push offset Lt_0180
call fb_StrAssign
add esp, 32
sub esp, 12
push 0
push 3
push offset Lt_0073
push -1
push offset Lt_0180
call fb_StrConcatAssign
add esp, 32
sub esp, 12
push 0
push -1
sub esp, 8
push 0
push dword ptr [ebp+12]
push -1
push offset Lt_0180
mov dword ptr [ebp-24], 0
mov dword ptr [ebp-20], 0
mov dword ptr [ebp-16], 0
lea eax, [ebp-24]
push eax
call fb_StrConcat
add esp, 28
push eax
push -1
push offset Lt_0180
call fb_StrAssign
add esp, 32
sub esp, 12
push dword ptr [Lt_0180]
call OUTP
add esp, 16
.L_017C:
mov esp, ebp
pop ebp
.cfi_restore 5
.cfi_def_cfa 4, 4
ret
.size HMOV, .-HMOV
.cfi_endproc

.section .bss
.balign 4
	.lcomm	Lt_0180,12

.section .text
.balign 16

.globl HLABEL
HLABEL:
.type HLABEL, @function
.cfi_startproc
push ebp
.cfi_def_cfa_offset 8
.cfi_offset 5, -8
mov ebp, esp
.cfi_def_cfa_register 5
sub esp, 8
.L_0190:
sub esp, 12
push 0
push 0
push dword ptr [ebp+8]
push -1
push offset Lt_0194
call fb_StrAssign
add esp, 32
sub esp, 12
push 0
push 3
push offset Lt_0193
push -1
push offset Lt_0194
call fb_StrConcatAssign
add esp, 32
sub esp, 8
push 0
push dword ptr [Lt_0194]
call OUTEX
add esp, 16
.L_0191:
mov esp, ebp
pop ebp
.cfi_restore 5
.cfi_def_cfa 4, 4
ret
.size HLABEL, .-HLABEL
.cfi_endproc

.section .bss
.balign 4
	.lcomm	Lt_0194,12

.section .text
.balign 16

.globl EMITVARINIBEGIN
EMITVARINIBEGIN:
.type EMITVARINIBEGIN, @function
.cfi_startproc
push ebp
.cfi_def_cfa_offset 8
.cfi_offset 5, -8
mov ebp, esp
.cfi_def_cfa_register 5
sub esp, 4
push ebx
.L_0A07:
sub esp, 8
push 0
push 1
call _SETSECTION
add esp, 16
sub esp, 8
push 1
push dword ptr [ebp+8]
call EDBGEMITGLOBALVAR
add esp, 16
sub esp, 12
push dword ptr [ebp+8]
call HGETGLOBALVARALIGN
add esp, 4
push eax
call HALIGN
add esp, 16
mov eax, dword ptr [ebp+8]
mov ebx, dword ptr [eax+4]
and ebx, 32
test ebx, ebx
je .L_0A0A
sub esp, 8
mov ebx, dword ptr [ebp+8]
mov eax, dword ptr [ebx+4]
and eax, 256
test eax, eax
setne al
shr eax, 1
sbb eax, eax
push eax
push dword ptr [ebp+8]
call SYMBGETMANGLEDNAME
add esp, 4
push eax
call HPUBLIC
add esp, 16
.L_0A0A:
.L_0A09:
sub esp, 12
push dword ptr [ebp+8]
call SYMBGETMANGLEDNAME
add esp, 4
push eax
call HLABEL
add esp, 16
.L_0A08:
pop ebx
mov esp, ebp
pop ebp
.cfi_restore 5
.cfi_def_cfa 4, 4
ret
.size EMITVARINIBEGIN, .-EMITVARINIBEGIN
.cfi_endproc
.balign 16

.globl EMITVARINII
EMITVARINII:
.type EMITVARINII, @function
.cfi_startproc
push ebp
.cfi_def_cfa_offset 8
.cfi_offset 5, -8
mov ebp, esp
.cfi_def_cfa_register 5
sub esp, 36
push ebx
.L_0A0C:
mov dword ptr [ebp-12], 0
mov dword ptr [ebp-8], 0
mov dword ptr [ebp-4], 0
sub esp, 12
push 0
push -1
sub esp, 8
push 2
push offset Lt_016E
push 0
sub esp, 4
push dword ptr [ebp+8]
call _GETTYPESTRING
add esp, 8
push eax
mov dword ptr [ebp-24], 0
mov dword ptr [ebp-20], 0
mov dword ptr [ebp-16], 0
lea eax, [ebp-24]
push eax
call fb_StrConcat
add esp, 28
push eax
push -1
lea eax, [ebp-12]
push eax
call fb_StrAssign
add esp, 32
mov eax, dword ptr [ebp+8]
cmp eax, 1
sete al
shr eax, 1
sbb eax, eax
cmp dword ptr [ebp+16], 0
mov ebx, -1
jne .L_0A15
cmp dword ptr [ebp+12], 0
jne .L_0A15
.L_0A16:
xor ebx, ebx
.L_0A15:
and eax, ebx
je .L_0A10
mov dword ptr [ebp+12], 1
mov dword ptr [ebp+16], 0
.L_0A10:
.L_0A0F:
mov ebx, dword ptr [ebp+8]
cmp ebx, 13
sete bl
shr ebx, 1
sbb ebx, ebx
mov eax, dword ptr [ebp+8]
cmp eax, 14
sete al
shr eax, 1
sbb eax, eax
or ebx, eax
je .L_0A12
sub esp, 12
push 0
push 3
push offset Lt_0A13
push -1
lea eax, [ebp-12]
push eax
call fb_StrConcatAssign
add esp, 32
sub esp, 12
push 0
push -1
sub esp, 4
push dword ptr [ebp+16]
push dword ptr [ebp+12]
call fb_HEX_l
add esp, 12
push eax
push -1
lea eax, [ebp-12]
push eax
call fb_StrConcatAssign
add esp, 32
jmp .L_0A11
.L_0A12:
sub esp, 12
push 0
push -1
sub esp, 4
push dword ptr [ebp+16]
push dword ptr [ebp+12]
call fb_LongintToStr
add esp, 12
push eax
push -1
lea eax, [ebp-12]
push eax
call fb_StrConcatAssign
add esp, 32
.L_0A11:
sub esp, 12
push 0
push 2
push offset Lt_016A
push -1
lea eax, [ebp-12]
push eax
call fb_StrConcatAssign
add esp, 32
sub esp, 8
push 0
push dword ptr [ebp-12]
call OUTEX
add esp, 16
sub esp, 12
lea eax, [ebp-12]
push eax
call fb_StrDelete
add esp, 16
.L_0A0D:
pop ebx
mov esp, ebp
pop ebp
.cfi_restore 5
.cfi_def_cfa 4, 4
ret
.size EMITVARINII, .-EMITVARINII
.cfi_endproc
.balign 16

.globl EMITVARINIF
EMITVARINIF:
.type EMITVARINIF, @function
.cfi_startproc
push ebp
.cfi_def_cfa_offset 8
.cfi_offset 5, -8
mov ebp, esp
.cfi_def_cfa_register 5
sub esp, 56
.L_0A19:
sub esp, 8
push 0
mov dword ptr [ebp-48], 0
mov dword ptr [ebp-44], 0
mov dword ptr [ebp-40], 0
push 0
push -1
sub esp, 8
push 2
push offset Lt_016A
push -1
sub esp, 4
push -1
sub esp, 4
push dword ptr [ebp+8]
push dword ptr [ebp+16]
push dword ptr [ebp+12]
call HFLOATTOHEX
add esp, 16
push eax
push -1
sub esp, 4
push 2
push offset Lt_016E
push 0
sub esp, 4
push dword ptr [ebp+8]
call _GETTYPESTRING
add esp, 8
push eax
mov dword ptr [ebp-12], 0
mov dword ptr [ebp-8], 0
mov dword ptr [ebp-4], 0
lea eax, [ebp-12]
push eax
call fb_StrConcat
add esp, 24
push eax
mov dword ptr [ebp-24], 0
mov dword ptr [ebp-20], 0
mov dword ptr [ebp-16], 0
lea eax, [ebp-24]
push eax
call fb_StrConcat
add esp, 24
push eax
mov dword ptr [ebp-36], 0
mov dword ptr [ebp-32], 0
mov dword ptr [ebp-28], 0
lea eax, [ebp-36]
push eax
call fb_StrConcat
add esp, 28
push eax
push -1
lea eax, [ebp-48]
push eax
call fb_StrAssign
add esp, 20
push dword ptr [ebp-48]
call OUTEX
add esp, 16
sub esp, 12
lea eax, [ebp-48]
push eax
call fb_StrDelete
add esp, 16
.L_0A1A:
mov esp, ebp
pop ebp
.cfi_restore 5
.cfi_def_cfa 4, 4
ret
.size EMITVARINIF, .-EMITVARINIF
.cfi_endproc
.balign 16

.globl EMITVARINIOFS
EMITVARINIOFS:
.type EMITVARINIOFS, @function
.cfi_startproc
push ebp
.cfi_def_cfa_offset 8
.cfi_offset 5, -8
mov ebp, esp
.cfi_def_cfa_register 5
sub esp, 24
.L_0A1F:
sub esp, 12
push 0
push 6
push offset Lt_0A21
push -1
push offset Lt_0A25
call fb_StrAssign
add esp, 32
sub esp, 12
push 0
push -1
sub esp, 8
push 0
push dword ptr [ebp+8]
push -1
push offset Lt_0A25
mov dword ptr [ebp-12], 0
mov dword ptr [ebp-8], 0
mov dword ptr [ebp-4], 0
lea eax, [ebp-12]
push eax
call fb_StrConcat
add esp, 28
push eax
push -1
push offset Lt_0A25
call fb_StrAssign
add esp, 32
cmp dword ptr [ebp+12], 0
je .L_0A24
sub esp, 12
push 0
push 4
push offset Lt_014A
push -1
push offset Lt_0A25
call fb_StrConcatAssign
add esp, 32
sub esp, 12
push 0
push -1
sub esp, 8
push dword ptr [ebp+12]
call fb_IntToStr
add esp, 12
push eax
push -1
push offset Lt_0A25
call fb_StrConcatAssign
add esp, 32
.L_0A24:
.L_0A23:
sub esp, 12
push 0
push 2
push offset Lt_016A
push -1
push offset Lt_0A25
call fb_StrConcatAssign
add esp, 32
sub esp, 8
push 0
push dword ptr [Lt_0A25]
call OUTEX
add esp, 16
.L_0A20:
mov esp, ebp
pop ebp
.cfi_restore 5
.cfi_def_cfa 4, 4
ret
.size EMITVARINIOFS, .-EMITVARINIOFS
.cfi_endproc

.section .bss
.balign 4
	.lcomm	Lt_0A25,12

.section .text
.balign 16

.globl EMITVARINISTR
EMITVARINISTR:
.type EMITVARINISTR, @function
.cfi_startproc
push ebp
.cfi_def_cfa_offset 8
.cfi_offset 5, -8
mov ebp, esp
.cfi_def_cfa_register 5
sub esp, 24
.L_0A26:
sub esp, 12
push 0
push 9
push offset Lt_01EA
push -1
push offset Lt_0A2A
call fb_StrAssign
add esp, 32
sub esp, 12
push 0
push -1
sub esp, 8
push 0
push dword ptr [ebp+8]
push -1
push offset Lt_0A2A
mov dword ptr [ebp-12], 0
mov dword ptr [ebp-8], 0
mov dword ptr [ebp-4], 0
lea eax, [ebp-12]
push eax
call fb_StrConcat
add esp, 28
push eax
push -1
push offset Lt_0A2A
call fb_StrAssign
add esp, 32
sub esp, 12
push 0
push 5
push offset Lt_0A29
push -1
push offset Lt_0A2A
call fb_StrConcatAssign
add esp, 32
sub esp, 8
push 0
push dword ptr [Lt_0A2A]
call OUTEX
add esp, 16
.L_0A27:
mov esp, ebp
pop ebp
.cfi_restore 5
.cfi_def_cfa 4, 4
ret
.size EMITVARINISTR, .-EMITVARINISTR
.cfi_endproc

.section .bss
.balign 4
	.lcomm	Lt_0A2A,12

.section .text
.balign 16

.globl EMITVARINIWSTR
EMITVARINIWSTR:
.type EMITVARINIWSTR, @function
.cfi_startproc
push ebp
.cfi_def_cfa_offset 8
.cfi_offset 5, -8
mov ebp, esp
.cfi_def_cfa_register 5
sub esp, 24
.L_0A2B:
sub esp, 12
push 0
push 9
push offset Lt_01EA
push -1
push offset Lt_0A33
call fb_StrAssign
add esp, 32
sub esp, 12
push 0
push -1
sub esp, 8
push 0
push dword ptr [ebp+8]
push -1
push offset Lt_0A33
mov dword ptr [ebp-12], 0
mov dword ptr [ebp-8], 0
mov dword ptr [ebp-4], 0
lea eax, [ebp-12]
push eax
call fb_StrConcat
add esp, 28
push eax
push -1
push offset Lt_0A33
call fb_StrAssign
add esp, 32
mov dword ptr [ebp-16], 1
mov eax, dword ptr [SYMB_DTYPETB+200]
mov dword ptr [ebp-20], eax
jmp .L_0A2F
.L_0A32:
sub esp, 12
push 0
push 3
push offset Lt_01C8
push -1
push offset Lt_0A33
call fb_StrConcatAssign
add esp, 32
.L_0A30:
inc dword ptr [ebp-16]
.L_0A2F:
mov eax, dword ptr [ebp-20]
cmp dword ptr [ebp-16], eax
jle .L_0A32
.L_0A31:
sub esp, 12
push 0
push 3
push offset Lt_01ED
push -1
push offset Lt_0A33
call fb_StrConcatAssign
add esp, 32
sub esp, 8
push 0
push dword ptr [Lt_0A33]
call OUTEX
add esp, 16
.L_0A2C:
mov esp, ebp
pop ebp
.cfi_restore 5
.cfi_def_cfa 4, 4
ret
.size EMITVARINIWSTR, .-EMITVARINIWSTR
.cfi_endproc

.section .bss
.balign 4
	.lcomm	Lt_0A33,12

.section .text
.balign 16

.globl EMITVARINIPAD
EMITVARINIPAD:
.type EMITVARINIPAD, @function
.cfi_startproc
push ebp
.cfi_def_cfa_offset 8
.cfi_offset 5, -8
mov ebp, esp
.cfi_def_cfa_register 5
sub esp, 56
.L_0A34:
sub esp, 8
push 0
mov dword ptr [ebp-48], 0
mov dword ptr [ebp-44], 0
mov dword ptr [ebp-40], 0
push 0
push -1
sub esp, 8
push 2
push offset Lt_016A
push -1
sub esp, 4
push 3
push offset Lt_0A37
push -1
sub esp, 4
push -1
sub esp, 12
push dword ptr [ebp+8]
call fb_IntToStr
add esp, 16
push eax
push 7
push offset Lt_0A36
mov dword ptr [ebp-12], 0
mov dword ptr [ebp-8], 0
mov dword ptr [ebp-4], 0
lea eax, [ebp-12]
push eax
call fb_StrConcat
add esp, 24
push eax
mov dword ptr [ebp-24], 0
mov dword ptr [ebp-20], 0
mov dword ptr [ebp-16], 0
lea eax, [ebp-24]
push eax
call fb_StrConcat
add esp, 24
push eax
mov dword ptr [ebp-36], 0
mov dword ptr [ebp-32], 0
mov dword ptr [ebp-28], 0
lea eax, [ebp-36]
push eax
call fb_StrConcat
add esp, 28
push eax
push -1
lea eax, [ebp-48]
push eax
call fb_StrAssign
add esp, 20
push dword ptr [ebp-48]
call OUTEX
add esp, 16
sub esp, 12
lea eax, [ebp-48]
push eax
call fb_StrDelete
add esp, 16
.L_0A35:
mov esp, ebp
pop ebp
.cfi_restore 5
.cfi_def_cfa 4, 4
ret
.size EMITVARINIPAD, .-EMITVARINIPAD
.cfi_endproc
.balign 16

.globl EMITFBCTINFBEGIN
EMITFBCTINFBEGIN:
.type EMITFBCTINFBEGIN, @function
.cfi_startproc
push ebp
.cfi_def_cfa_offset 8
.cfi_offset 5, -8
mov ebp, esp
.cfi_def_cfa_register 5
sub esp, 8
.L_0A3C:
sub esp, 8
push 0
push 7
call _SETSECTION
add esp, 16
.L_0A3D:
mov esp, ebp
pop ebp
.cfi_restore 5
.cfi_def_cfa 4, 4
ret
.size EMITFBCTINFBEGIN, .-EMITFBCTINFBEGIN
.cfi_endproc
.balign 16

.globl EMITFBCTINFSTRING
EMITFBCTINFSTRING:
.type EMITFBCTINFSTRING, @function
.cfi_startproc
push ebp
.cfi_def_cfa_offset 8
.cfi_offset 5, -8
mov ebp, esp
.cfi_def_cfa_register 5
sub esp, 40
.L_0A3E:
sub esp, 12
push 0
push 0
sub esp, 8
push 4
call dword ptr [EMIT+228]
add esp, 12
push eax
push -1
push offset Lt_0A45
call fb_StrAssign
add esp, 32
sub esp, 12
push 0
push -1
sub esp, 8
push -1
sub esp, 12
push 4
push offset Lt_0A41
push -1
sub esp, 4
push 0
push dword ptr [ebp+8]
push 3
push offset Lt_0A40
mov dword ptr [ebp-12], 0
mov dword ptr [ebp-8], 0
mov dword ptr [ebp-4], 0
lea eax, [ebp-12]
push eax
call fb_StrConcat
add esp, 24
push eax
mov dword ptr [ebp-24], 0
mov dword ptr [ebp-20], 0
mov dword ptr [ebp-16], 0
lea eax, [ebp-24]
push eax
call fb_StrConcat
add esp, 32
push eax
push -1
push offset Lt_0A45
mov dword ptr [ebp-36], 0
mov dword ptr [ebp-32], 0
mov dword ptr [ebp-28], 0
lea eax, [ebp-36]
push eax
call fb_StrConcat
add esp, 28
push eax
push -1
push offset Lt_0A45
call fb_StrAssign
add esp, 32
sub esp, 8
push 0
push dword ptr [Lt_0A45]
call EMITWRITESTR
add esp, 16
.L_0A3F:
mov esp, ebp
pop ebp
.cfi_restore 5
.cfi_def_cfa 4, 4
ret
.size EMITFBCTINFSTRING, .-EMITFBCTINFSTRING
.cfi_endproc

.section .bss
.balign 4
	.lcomm	Lt_0A45,12

.section .text
.balign 16

.globl EMITFBCTINFEND
EMITFBCTINFEND:
.type EMITFBCTINFEND, @function
.cfi_startproc
push ebp
.cfi_def_cfa_offset 8
.cfi_offset 5, -8
mov ebp, esp
.cfi_def_cfa_register 5
sub esp, 8
.L_0A46:
sub esp, 8
push 0
push offset Lt_0000
call EMITWRITESTR
add esp, 16
.L_0A47:
mov esp, ebp
pop ebp
.cfi_restore 5
.cfi_def_cfa 4, 4
ret
.size EMITFBCTINFEND, .-EMITFBCTINFEND
.cfi_endproc
.balign 16

.globl EMITGASX86_CTOR
EMITGASX86_CTOR:
.type EMITGASX86_CTOR, @function
.cfi_startproc
push ebp
.cfi_def_cfa_offset 8
.cfi_offset 5, -8
mov ebp, esp
.cfi_def_cfa_register 5
sub esp, 8
mov dword ptr [ebp-4], 0
.L_0B2F:
lea eax, [EMIT+148]
push edi
push esi
mov edi, eax
mov esi, offset Lt_0B33
mov ecx, 22
rep movsd
pop esi
pop edi
mov eax, offset _OPFNTB
mov dword ptr [EMIT+236], eax
cmp dword ptr [ENV+116], 1
jl .L_0B32
sub esp, 12
push dword ptr [EMIT+236]
call _INIT_OPFNTB_SSE
add esp, 16
.L_0B32:
.L_0B31:
mov dword ptr [ebp-4], -1
.L_0B30:
mov eax, dword ptr [ebp-4]
mov esp, ebp
pop ebp
.cfi_restore 5
.cfi_def_cfa 4, 4
ret
.size EMITGASX86_CTOR, .-EMITGASX86_CTOR
.cfi_endproc

.section .data
.balign 4
Lt_0B33:
.int _INIT
.int _END
.int _GETOPTIONVALUE
.int _OPEN
.int _CLOSE
.int _ISREGPRESERVED
.int _GETFREEPRESERVEDREG
.int _GETARGREG
.int _GETRESULTREG
.int _PROCGETFRAMEREGNAME
.int _PROCBEGIN
.int _PROCEND
.int _PROCHEADER
.int _PROCFOOTER
.int _PROCALLOCARG
.int _PROCALLOCLOCAL
.int _PROCALLOCSTATICVARS
.int _SCOPEBEGIN
.int _SCOPEEND
.int _SETSECTION
.int _GETTYPESTRING
.int _GETSECTIONSTRING

.section .text
.balign 16
fb_ctor__emit_x86:
.type fb_ctor__emit_x86, @function
.cfi_startproc
push ebp
.cfi_def_cfa_offset 8
.cfi_offset 5, -8
mov ebp, esp
.cfi_def_cfa_register 5
sub esp, 8
.L_0002:
.L_0003:
mov esp, ebp
pop ebp
.cfi_restore 5
.cfi_def_cfa 4, 4
ret
.size fb_ctor__emit_x86, .-fb_ctor__emit_x86
.cfi_endproc
.balign 16
_ZN11TSTRSETITEMaSERKS_:
.type _ZN11TSTRSETITEMaSERKS_, @function
.cfi_startproc
push ebp
.cfi_def_cfa_offset 8
.cfi_offset 5, -8
mov ebp, esp
.cfi_def_cfa_register 5
sub esp, 4
push ebx
.L_0012:
sub esp, 12
push 0
push -1
mov eax, dword ptr [ebp+12]
lea ebx, [eax]
push ebx
push -1
mov ebx, dword ptr [ebp+8]
lea eax, [ebx]
push eax
call fb_StrAssign
add esp, 32
mov eax, dword ptr [ebp+12]
add eax, 12
mov ebx, dword ptr [ebp+8]
add ebx, 12
mov ecx, dword ptr [eax]
mov dword ptr [ebx], ecx
mov ecx, dword ptr [ebp+12]
add ecx, 16
mov ebx, dword ptr [ebp+8]
add ebx, 16
mov eax, dword ptr [ecx]
mov dword ptr [ebx], eax
.L_0013:
pop ebx
mov esp, ebp
pop ebp
.cfi_restore 5
.cfi_def_cfa 4, 4
ret
.size _ZN11TSTRSETITEMaSERKS_, .-_ZN11TSTRSETITEMaSERKS_
.cfi_endproc
.balign 16
HGETIDXNAME:
.type HGETIDXNAME, @function
.cfi_startproc
push ebp
.cfi_def_cfa_offset 8
.cfi_offset 5, -8
mov ebp, esp
.cfi_def_cfa_register 5
sub esp, 68
push ebx
mov dword ptr [ebp-4], 0
.L_010D:
mov eax, dword ptr [ebp+8]
mov ebx, dword ptr [eax+32]
mov dword ptr [Lt_0B34], ebx
mov ebx, dword ptr [ebp+8]
mov eax, dword ptr [ebx+48]
mov dword ptr [Lt_0B35], eax
cmp dword ptr [Lt_0B34], 0
jne .L_0110
cmp dword ptr [Lt_0B35], 0
jne .L_0112
mov dword ptr [ebp-4], 0
jmp .L_010E
.L_0112:
.L_0111:
sub esp, 12
push 0
push 1
push offset Lt_0000
push 154
push offset Lt_0B36
call fb_StrAssign
add esp, 32
jmp .L_010F
.L_0110:
sub esp, 12
push 0
push 0
sub esp, 8
push dword ptr [Lt_0B34]
call SYMBGETMANGLEDNAME
add esp, 12
push eax
push 154
push offset Lt_0B36
call fb_StrAssign
add esp, 32
cmp dword ptr [Lt_0B35], 0
je .L_0114
sub esp, 12
push 0
push -1
sub esp, 8
push 2
push offset Lt_0115
push 154
push offset Lt_0B36
mov dword ptr [ebp-28], 0
mov dword ptr [ebp-24], 0
mov dword ptr [ebp-20], 0
lea eax, [ebp-28]
push eax
call fb_StrConcat
add esp, 28
push eax
push 154
push offset Lt_0B36
call fb_StrAssign
add esp, 32
.L_0114:
.L_0113:
.L_010F:
sub esp, 8
mov eax, dword ptr [Lt_0B35]
push dword ptr [eax+12]
mov eax, dword ptr [Lt_0B35]
push dword ptr [eax+4]
call HGETREGNAME
add esp, 16
mov dword ptr [Lt_0B37], eax
sub esp, 12
push 0
push -1
sub esp, 8
push 0
push dword ptr [Lt_0B37]
push 154
push offset Lt_0B36
mov dword ptr [ebp-16], 0
mov dword ptr [ebp-12], 0
mov dword ptr [ebp-8], 0
lea eax, [ebp-16]
push eax
call fb_StrConcat
add esp, 28
push eax
push 154
push offset Lt_0B36
call fb_StrAssign
add esp, 32
cmp dword ptr [Lt_0B35], 0
je .L_0119
mov eax, dword ptr [ebp+8]
mov ebx, dword ptr [eax+44]
mov dword ptr [Lt_0B38], ebx
cmp dword ptr [Lt_0B38], 1
jle .L_011B
mov dword ptr [Lt_0B39], 0
cmp dword ptr [Lt_0B38], 3
je .L_011E
.L_011F:
cmp dword ptr [Lt_0B38], 5
je .L_011E
.L_0120:
cmp dword ptr [Lt_0B38], 9
jne .L_011D
.L_011E:
dec dword ptr [Lt_0B38]
mov dword ptr [Lt_0B39], -1
.L_011D:
.L_011C:
sub esp, 12
push 0
push -1
sub esp, 8
push 2
push offset Lt_0121
push 154
push offset Lt_0B36
mov dword ptr [ebp-28], 0
mov dword ptr [ebp-24], 0
mov dword ptr [ebp-20], 0
lea ebx, [ebp-28]
push ebx
call fb_StrConcat
add esp, 28
push eax
push 154
push offset Lt_0B36
call fb_StrAssign
add esp, 32
sub esp, 12
push 0
push -1
sub esp, 8
push -1
sub esp, 12
push dword ptr [Lt_0B38]
call fb_IntToStr
add esp, 16
push eax
push 154
push offset Lt_0B36
mov dword ptr [ebp-40], 0
mov dword ptr [ebp-36], 0
mov dword ptr [ebp-32], 0
lea eax, [ebp-40]
push eax
call fb_StrConcat
add esp, 28
push eax
push 154
push offset Lt_0B36
call fb_StrAssign
add esp, 32
cmp dword ptr [Lt_0B39], 0
je .L_0125
sub esp, 12
push 0
push -1
sub esp, 8
push 2
push offset Lt_0115
push 154
push offset Lt_0B36
mov dword ptr [ebp-52], 0
mov dword ptr [ebp-48], 0
mov dword ptr [ebp-44], 0
lea eax, [ebp-52]
push eax
call fb_StrConcat
add esp, 28
push eax
push 154
push offset Lt_0B36
call fb_StrAssign
add esp, 32
sub esp, 12
push 0
push -1
sub esp, 8
push 0
push dword ptr [Lt_0B37]
push 154
push offset Lt_0B36
mov dword ptr [ebp-64], 0
mov dword ptr [ebp-60], 0
mov dword ptr [ebp-56], 0
lea eax, [ebp-64]
push eax
call fb_StrConcat
add esp, 28
push eax
push 154
push offset Lt_0B36
call fb_StrAssign
add esp, 32
.L_0125:
.L_0124:
.L_011B:
.L_011A:
.L_0119:
.L_0118:
mov eax, offset Lt_0B36
mov dword ptr [ebp-4], eax
.L_010E:
mov eax, dword ptr [ebp-4]
pop ebx
mov esp, ebp
pop ebp
.cfi_restore 5
.cfi_def_cfa 4, 4
ret
.size HGETIDXNAME, .-HGETIDXNAME
.cfi_endproc

.section .bss
.balign 4
	.lcomm	Lt_0B36,154
.balign 4
	.lcomm	Lt_0B34,4
.balign 4
	.lcomm	Lt_0B35,4
.balign 4
	.lcomm	Lt_0B39,4
.balign 4
	.lcomm	Lt_0B38,4
.balign 4
	.lcomm	Lt_0B37,4

.section .text
.balign 16
OUTEX:
.type OUTEX, @function
.cfi_startproc
push ebp
.cfi_def_cfa_offset 8
.cfi_offset 5, -8
mov ebp, esp
.cfi_def_cfa_register 5
sub esp, 8
.L_015E:
cmp dword ptr [ebp+12], 0
jne .L_0161
sub esp, 8
push 0
push dword ptr [ebp+8]
call fb_StrLen
add esp, 16
mov dword ptr [ebp+12], eax
.L_0161:
.L_0160:
push 0
push dword ptr [ebp+8]
push 0
push dword ptr [ENV+580]
call fb_FilePutStr
add esp, 16
test eax, eax
jne .L_0163
.L_0163:
.L_0162:
.L_015F:
mov esp, ebp
pop ebp
.cfi_restore 5
.cfi_def_cfa 4, 4
ret
.size OUTEX, .-OUTEX
.cfi_endproc
.balign 16
HXCHG:
.type HXCHG, @function
.cfi_startproc
push ebp
.cfi_def_cfa_offset 8
.cfi_offset 5, -8
mov ebp, esp
.cfi_def_cfa_register 5
sub esp, 24
.L_0181:
sub esp, 12
push 0
push 6
push offset Lt_0183
push -1
push offset Lt_0B3A
call fb_StrAssign
add esp, 32
sub esp, 12
push 0
push -1
sub esp, 8
push 0
push dword ptr [ebp+8]
push -1
push offset Lt_0B3A
mov dword ptr [ebp-12], 0
mov dword ptr [ebp-8], 0
mov dword ptr [ebp-4], 0
lea eax, [ebp-12]
push eax
call fb_StrConcat
add esp, 28
push eax
push -1
push offset Lt_0B3A
call fb_StrAssign
add esp, 32
sub esp, 12
push 0
push 3
push offset Lt_0073
push -1
push offset Lt_0B3A
call fb_StrConcatAssign
add esp, 32
sub esp, 12
push 0
push -1
sub esp, 8
push 0
push dword ptr [ebp+12]
push -1
push offset Lt_0B3A
mov dword ptr [ebp-24], 0
mov dword ptr [ebp-20], 0
mov dword ptr [ebp-16], 0
lea eax, [ebp-24]
push eax
call fb_StrConcat
add esp, 28
push eax
push -1
push offset Lt_0B3A
call fb_StrAssign
add esp, 32
sub esp, 12
push dword ptr [Lt_0B3A]
call OUTP
add esp, 16
.L_0182:
mov esp, ebp
pop ebp
.cfi_restore 5
.cfi_def_cfa 4, 4
ret
.size HXCHG, .-HXCHG
.cfi_endproc

.section .bss
.balign 4
	.lcomm	Lt_0B3A,12

.section .text
.balign 16
HPUBLIC:
.type HPUBLIC, @function
.cfi_startproc
push ebp
.cfi_def_cfa_offset 8
.cfi_offset 5, -8
mov ebp, esp
.cfi_def_cfa_register 5
sub esp, 24
.L_018B:
sub esp, 12
push 0
push 9
push offset Lt_018E
push -1
push offset Lt_0B3B
call fb_StrAssign
add esp, 32
sub esp, 12
push 0
push -1
sub esp, 8
push 0
push dword ptr [ebp+8]
push -1
push offset Lt_0B3B
mov dword ptr [ebp-12], 0
mov dword ptr [ebp-8], 0
mov dword ptr [ebp-4], 0
lea eax, [ebp-12]
push eax
call fb_StrConcat
add esp, 28
push eax
push -1
push offset Lt_0B3B
call fb_StrAssign
add esp, 32
sub esp, 12
push 0
push 2
push offset Lt_016A
push -1
push offset Lt_0B3B
call fb_StrConcatAssign
add esp, 32
sub esp, 8
push 0
push dword ptr [Lt_0B3B]
call OUTEX
add esp, 16
.L_018C:
mov esp, ebp
pop ebp
.cfi_restore 5
.cfi_def_cfa 4, 4
ret
.size HPUBLIC, .-HPUBLIC
.cfi_endproc

.section .bss
.balign 4
	.lcomm	Lt_0B3B,12

.section .text
.balign 16
HALIGN:
.type HALIGN, @function
.cfi_startproc
push ebp
.cfi_def_cfa_offset 8
.cfi_offset 5, -8
mov ebp, esp
.cfi_def_cfa_register 5
sub esp, 8
.L_0195:
sub esp, 12
push 0
push 9
push offset Lt_0197
push -1
push offset Lt_0B3C
call fb_StrAssign
add esp, 32
sub esp, 12
push 0
push -1
sub esp, 8
push dword ptr [ebp+8]
call fb_IntToStr
add esp, 12
push eax
push -1
push offset Lt_0B3C
call fb_StrConcatAssign
add esp, 32
sub esp, 12
push 0
push 2
push offset Lt_016A
push -1
push offset Lt_0B3C
call fb_StrConcatAssign
add esp, 32
sub esp, 8
push 0
push dword ptr [Lt_0B3C]
call OUTEX
add esp, 16
.L_0196:
mov esp, ebp
pop ebp
.cfi_restore 5
.cfi_def_cfa 4, 4
ret
.size HALIGN, .-HALIGN
.cfi_endproc

.section .bss
.balign 4
	.lcomm	Lt_0B3C,12

.section .text
.balign 16
HINITREGTB:
.type HINITREGTB, @function
.cfi_startproc
push ebp
.cfi_def_cfa_offset 8
.cfi_offset 5, -8
mov ebp, esp
.cfi_def_cfa_register 5
sub esp, 36
push ebx
.L_0198:
mov dword ptr [ebp-4], 0
mov dword ptr [ebp-8], 0
mov dword ptr [ebp-12], 0
push 0
push offset Lt_0B3D
push 6
push 0
call REGNEWCLASS
add esp, 16
mov dword ptr [EMIT+8], eax
cmp dword ptr [ENV+116], 1
jne .L_019D
push 0
push offset Lt_0B3E
push 7
push 1
call REGNEWCLASS
add esp, 16
mov dword ptr [EMIT+12], eax
mov dword ptr [ebp-12], 0
.L_01A1:
sub esp, 12
push 0
push -1
sub esp, 8
push -1
sub esp, 12
push dword ptr [ebp-12]
call fb_IntToStr
add esp, 16
push eax
push 4
push offset Lt_01A2
mov dword ptr [ebp-24], 0
mov dword ptr [ebp-20], 0
mov dword ptr [ebp-16], 0
lea eax, [ebp-24]
push eax
call fb_StrConcat
add esp, 28
push eax
push 8
mov eax, dword ptr [ebp-12]
lea ebx, [RNAMETB+eax*8+192]
push ebx
call fb_StrAssign
add esp, 32
.L_019F:
inc dword ptr [ebp-12]
.L_019E:
cmp dword ptr [ebp-12], 7
jle .L_01A1
.L_01A0:
jmp .L_019C
.L_019D:
push -1
push offset Lt_0B3E
push 7
push 1
call REGNEWCLASS
add esp, 16
mov dword ptr [EMIT+12], eax
.L_019C:
.L_0199:
pop ebx
mov esp, ebp
pop ebp
.cfi_restore 5
.cfi_def_cfa 4, 4
ret
.size HINITREGTB, .-HINITREGTB
.cfi_endproc

.section .data
.balign 4
Lt_0B3F:
.int 7
.int 6
.int 6
.int 7
.int 7
.int 7
.balign 4
Lt_0B3D:
.int Lt_0B3F
.int Lt_0B3F
.int 24
.int 4
.int 1
.int 49
.int 6
.int 0
.int 5
.balign 4
Lt_0B40:
.int 12
.int 12
.int 12
.int 12
.int 12
.int 12
.int 12
.balign 4
Lt_0B3E:
.int Lt_0B40
.int Lt_0B40
.int 28
.int 4
.int 1
.int 49
.int 7
.int 0
.int 6

.section .text
.balign 16
HENDREGTB:
.type HENDREGTB, @function
.cfi_startproc
push ebp
.cfi_def_cfa_offset 8
.cfi_offset 5, -8
mov ebp, esp
.cfi_def_cfa_register 5
sub esp, 4
push ebx
.L_01A4:
mov dword ptr [ebp-4], 0
mov dword ptr [ebp-4], 0
.L_01A9:
sub esp, 12
mov eax, dword ptr [ebp-4]
sal eax, 2
mov ebx, offset EMIT
add ebx, eax
push dword ptr [ebx+8]
call REGDELCLASS
add esp, 16
.L_01A7:
inc dword ptr [ebp-4]
.L_01A6:
cmp dword ptr [ebp-4], 1
jle .L_01A9
.L_01A8:
.L_01A5:
pop ebx
mov esp, ebp
pop ebp
.cfi_restore 5
.cfi_def_cfa 4, 4
ret
.size HENDREGTB, .-HENDREGTB
.cfi_endproc
.balign 16
HGETGLOBALTYPEALIGN:
.type HGETGLOBALTYPEALIGN, @function
.cfi_startproc
push ebp
.cfi_def_cfa_offset 8
.cfi_offset 5, -8
mov ebp, esp
.cfi_def_cfa_register 5
sub esp, 8
mov dword ptr [ebp-4], 0
.L_01AA:
cmp dword ptr [ebp+8], 16
jne .L_01AD
mov dword ptr [ebp-4], 8
jmp .L_01AC
.L_01AD:
mov dword ptr [ebp-4], 4
.L_01AC:
.L_01AB:
mov eax, dword ptr [ebp-4]
mov esp, ebp
pop ebp
.cfi_restore 5
.cfi_def_cfa 4, 4
ret
.size HGETGLOBALTYPEALIGN, .-HGETGLOBALTYPEALIGN
.cfi_endproc
.balign 16
HGETGLOBALVARALIGN:
.type HGETGLOBALVARALIGN, @function
.cfi_startproc
push ebp
.cfi_def_cfa_offset 8
.cfi_offset 5, -8
mov ebp, esp
.cfi_def_cfa_register 5
sub esp, 4
push ebx
mov dword ptr [ebp-4], 0
.L_01AE:
mov eax, dword ptr [ebp+8]
mov ebx, dword ptr [eax+4]
and ebx, 262144
test ebx, ebx
je .L_01B1
mov dword ptr [ebp-4], 4
jmp .L_01B0
.L_01B1:
sub esp, 12
mov ebx, dword ptr [ebp+8]
mov eax, dword ptr [ebx+28]
and eax, 511
push eax
call HGETGLOBALTYPEALIGN
add esp, 16
mov dword ptr [ebp-4], eax
.L_01B0:
.L_01AF:
mov eax, dword ptr [ebp-4]
pop ebx
mov esp, ebp
pop ebp
.cfi_restore 5
.cfi_def_cfa 4, 4
ret
.size HGETGLOBALVARALIGN, .-HGETGLOBALVARALIGN
.cfi_endproc
.balign 16
HEMITVARBSS:
.type HEMITVARBSS, @function
.cfi_startproc
push ebp
.cfi_def_cfa_offset 8
.cfi_offset 5, -8
mov ebp, esp
.cfi_def_cfa_register 5
sub esp, 20
push ebx
.L_01B2:
mov eax, dword ptr [ebp+8]
mov ebx, dword ptr [eax+4]
mov dword ptr [Lt_0B41], ebx
sub esp, 8
push 0
push 2
call _SETSECTION
add esp, 16
mov ebx, dword ptr [Lt_0B41]
and ebx, 8
test ebx, ebx
jne .L_01B5
mov ebx, dword ptr [Lt_0B41]
and ebx, 32
test ebx, ebx
jle .L_01B7
sub esp, 8
push -1
push dword ptr [ebp+8]
call SYMBGETMANGLEDNAME
add esp, 4
push eax
call HPUBLIC
add esp, 16
.L_01B7:
.L_01B6:
sub esp, 12
push 0
push 7
push offset Lt_01B8
push -1
push offset Lt_0B42
call fb_StrAssign
add esp, 32
jmp .L_01B4
.L_01B5:
sub esp, 8
push 0
push dword ptr [ebp+8]
call SYMBGETMANGLEDNAME
add esp, 4
push eax
call HPUBLIC
add esp, 16
sub esp, 12
push 0
push 6
push offset Lt_01B9
push -1
push offset Lt_0B42
call fb_StrAssign
add esp, 32
.L_01B4:
sub esp, 12
push dword ptr [ebp+8]
call HGETGLOBALVARALIGN
add esp, 4
push eax
call HALIGN
add esp, 16
sub esp, 12
push 0
push -1
push offset Lt_0B42
push -1
push offset Lt_0B43
call fb_StrAssign
add esp, 32
sub esp, 12
push 0
push 2
push offset Lt_0168
push -1
push offset Lt_0B43
call fb_StrConcatAssign
add esp, 32
sub esp, 12
push 0
push -1
sub esp, 8
push 0
sub esp, 12
push dword ptr [ebp+8]
call SYMBGETMANGLEDNAME
add esp, 16
push eax
push -1
push offset Lt_0B43
mov dword ptr [ebp-12], 0
mov dword ptr [ebp-8], 0
mov dword ptr [ebp-4], 0
lea eax, [ebp-12]
push eax
call fb_StrConcat
add esp, 28
push eax
push -1
push offset Lt_0B43
call fb_StrAssign
add esp, 32
sub esp, 12
push 0
push 2
push offset Lt_01BB
push -1
push offset Lt_0B43
call fb_StrConcatAssign
add esp, 32
sub esp, 12
push 0
push -1
sub esp, 4
sub esp, 4
push dword ptr [ebp+8]
call SYMBGETREALSIZE
add esp, 8
push edx
push eax
call fb_LongintToStr
add esp, 12
push eax
push -1
push offset Lt_0B43
call fb_StrConcatAssign
add esp, 32
sub esp, 8
push -1
push dword ptr [Lt_0B43]
call EMITWRITESTR
add esp, 16
sub esp, 8
push 2
push dword ptr [ebp+8]
call EDBGEMITGLOBALVAR
add esp, 16
.L_01B3:
pop ebx
mov esp, ebp
pop ebp
.cfi_restore 5
.cfi_def_cfa 4, 4
ret
.size HEMITVARBSS, .-HEMITVARBSS
.cfi_endproc

.section .bss
.balign 4
	.lcomm	Lt_0B42,12
.balign 4
	.lcomm	Lt_0B43,12
.balign 4
	.lcomm	Lt_0B41,4

.section .text
.balign 16
HWRITEHEADER:
.type HWRITEHEADER, @function
.cfi_startproc
push ebp
.cfi_def_cfa_offset 8
.cfi_offset 5, -8
mov ebp, esp
.cfi_def_cfa_register 5
sub esp, 8
.L_01BC:
sub esp, 12
lea eax, [ENV+304]
push eax
call EDBGEMITHEADER
add esp, 16
sub esp, 8
push -1
push offset Lt_01BE
call EMITWRITESTR
add esp, 16
.L_01BD:
mov esp, ebp
pop ebp
.cfi_restore 5
.cfi_def_cfa 4, 4
ret
.size HWRITEHEADER, .-HWRITEHEADER
.cfi_endproc
.balign 16
HEMITVARCONST:
.type HEMITVARCONST, @function
.cfi_startproc
push ebp
.cfi_def_cfa_offset 8
.cfi_offset 5, -8
mov ebp, esp
.cfi_def_cfa_register 5
sub esp, 36
push ebx
.L_01BF:
mov eax, dword ptr [ebp+8]
mov ebx, dword ptr [eax+28]
and ebx, 511
mov dword ptr [Lt_0B44], ebx
mov ebx, dword ptr [Lt_0B44]
mov dword ptr [ebp-4], ebx
jmp .L_01C2
.L_01C4:
sub esp, 12
push 0
push 2
push offset Lt_01C5
push -1
push offset Lt_0B45
call fb_StrAssign
add esp, 32
sub esp, 12
push 0
push -1
sub esp, 8
push 0
sub esp, 12
mov ebx, dword ptr [ebp+8]
push dword ptr [ebx+56]
call HESCAPE
add esp, 16
push eax
push -1
push offset Lt_0B45
mov dword ptr [ebp-16], 0
mov dword ptr [ebp-12], 0
mov dword ptr [ebp-8], 0
lea eax, [ebp-16]
push eax
call fb_StrConcat
add esp, 28
push eax
push -1
push offset Lt_0B45
call fb_StrAssign
add esp, 32
sub esp, 12
push 0
push 4
push offset Lt_01C9
push -1
push offset Lt_0B45
call fb_StrConcatAssign
add esp, 32
jmp .L_01C1
.L_01CA:
sub esp, 12
push 0
push 2
push offset Lt_01C5
push -1
push offset Lt_0B45
call fb_StrAssign
add esp, 32
sub esp, 12
push 0
push -1
sub esp, 8
push 0
sub esp, 12
mov eax, dword ptr [ebp+8]
push dword ptr [eax+56]
call HESCAPEW
add esp, 16
push eax
push -1
push offset Lt_0B45
mov dword ptr [ebp-16], 0
mov dword ptr [ebp-12], 0
mov dword ptr [ebp-8], 0
lea eax, [ebp-16]
push eax
call fb_StrConcat
add esp, 28
push eax
push -1
push offset Lt_0B45
call fb_StrAssign
add esp, 32
mov dword ptr [ebp-20], 1
mov eax, dword ptr [SYMB_DTYPETB+200]
mov dword ptr [ebp-24], eax
jmp .L_01CD
.L_01D0:
sub esp, 12
push 0
push 3
push offset Lt_01C8
push -1
push offset Lt_0B45
call fb_StrConcatAssign
add esp, 32
.L_01CE:
inc dword ptr [ebp-20]
.L_01CD:
mov eax, dword ptr [ebp-24]
cmp dword ptr [ebp-20], eax
jle .L_01D0
.L_01CF:
sub esp, 12
push 0
push 2
push offset Lt_01C5
push -1
push offset Lt_0B45
call fb_StrConcatAssign
add esp, 32
jmp .L_01C1
.L_01D1:
sub esp, 12
push 0
push 0
mov eax, dword ptr [ebp+8]
push dword ptr [eax+56]
push -1
push offset Lt_0B45
call fb_StrAssign
add esp, 32
jmp .L_01C1
.L_01C2:
mov eax, dword ptr [ebp-4]
add eax, 4294967292
cmp eax, 3
ja .L_01D1
mov eax, dword ptr [ebp-4]
jmp dword ptr [.L_01D2+eax*4-16]
.L_01D2:
.int .L_01C4
.int .L_01D1
.int .L_01D1
.int .L_01CA
.L_01C1:
cmp dword ptr [ENV+108], 2
jne .L_01D4
sub esp, 8
push 0
push 0
call _SETSECTION
add esp, 16
jmp .L_01D3
.L_01D4:
sub esp, 8
push 0
push 1
call _SETSECTION
add esp, 16
.L_01D3:
mov eax, dword ptr [ebp+8]
cmp dword ptr [eax+100], 0
je .L_01D6
sub esp, 12
mov eax, dword ptr [ebp+8]
push dword ptr [eax+100]
call HALIGN
add esp, 16
jmp .L_01D5
.L_01D6:
sub esp, 12
push dword ptr [Lt_0B44]
call HGETGLOBALTYPEALIGN
add esp, 4
push eax
call HALIGN
add esp, 16
.L_01D5:
sub esp, 12
push 0
push 0
sub esp, 8
push dword ptr [Lt_0B44]
call _GETTYPESTRING
add esp, 12
push eax
push -1
push offset Lt_0B46
call fb_StrAssign
add esp, 32
sub esp, 12
push 0
push 0
sub esp, 8
push dword ptr [ebp+8]
call SYMBGETMANGLEDNAME
add esp, 12
push eax
push -1
push offset Lt_0B47
call fb_StrAssign
add esp, 32
sub esp, 12
push 0
push 3
push offset Lt_01D7
push -1
push offset Lt_0B47
call fb_StrConcatAssign
add esp, 32
sub esp, 12
push 0
push -1
push offset Lt_0B46
push -1
push offset Lt_0B47
call fb_StrConcatAssign
add esp, 32
sub esp, 12
push 0
push 2
push offset Lt_0168
push -1
push offset Lt_0B47
call fb_StrConcatAssign
add esp, 32
sub esp, 12
push 0
push -1
push offset Lt_0B45
push -1
push offset Lt_0B47
call fb_StrConcatAssign
add esp, 32
sub esp, 8
push 0
push dword ptr [Lt_0B47]
call EMITWRITESTR
add esp, 16
.L_01C0:
pop ebx
mov esp, ebp
pop ebp
.cfi_restore 5
.cfi_def_cfa 4, 4
ret
.size HEMITVARCONST, .-HEMITVARCONST
.cfi_endproc

.section .bss
.balign 4
	.lcomm	Lt_0B45,12
.balign 4
	.lcomm	Lt_0B46,12
.balign 4
	.lcomm	Lt_0B47,12
.balign 4
	.lcomm	Lt_0B44,4

.section .text
.balign 16
HWRITECTOR:
.type HWRITECTOR, @function
.cfi_startproc
push ebp
.cfi_def_cfa_offset 8
.cfi_offset 5, -8
mov ebp, esp
.cfi_def_cfa_register 5
sub esp, 4
push ebx
.L_01D8:
cmp dword ptr [ebp+8], 0
jne .L_01DB
jmp .L_01D9
.L_01DB:
.L_01DA:
.L_01DC:
mov eax, dword ptr [ebp+8]
mov ebx, dword ptr [eax]
mov eax, dword ptr [ebx+12]
and eax, 16777216
test eax, eax
je .L_01E0
sub esp, 8
mov eax, dword ptr [ebp+8]
mov ebx, dword ptr [eax]
mov eax, dword ptr [ebx+112]
push dword ptr [eax+56]
cmp dword ptr [ebp+12], 0
je .L_01E1
mov dword ptr [ebp-4], 5
jmp .L_0B48
.L_01E1:
mov dword ptr [ebp-4], 6
.L_0B48:
push dword ptr [ebp-4]
call _SETSECTION
add esp, 16
sub esp, 8
push 0
mov eax, dword ptr [ebp+8]
push dword ptr [eax]
call SYMBGETMANGLEDNAME
add esp, 4
push eax
call EMITVARINIOFS
add esp, 16
.L_01E0:
.L_01DF:
mov eax, dword ptr [ebp+8]
mov ebx, dword ptr [eax+4]
mov dword ptr [ebp+8], ebx
.L_01DE:
cmp dword ptr [ebp+8], 0
jne .L_01DC
.L_01DD:
.L_01D9:
pop ebx
mov esp, ebp
pop ebp
.cfi_restore 5
.cfi_def_cfa 4, 4
ret
.size HWRITECTOR, .-HWRITECTOR
.cfi_endproc
.balign 16
HEMITEXPORT:
.type HEMITEXPORT, @function
.cfi_startproc
push ebp
.cfi_def_cfa_offset 8
.cfi_offset 5, -8
mov ebp, esp
.cfi_def_cfa_register 5
sub esp, 52
push ebx
.L_01E3:
mov eax, dword ptr [ebp+8]
mov ebx, dword ptr [eax+4]
and ebx, 256
test ebx, ebx
je .L_01E6
sub esp, 8
push 0
push 4
call _SETSECTION
add esp, 16
sub esp, 12
push dword ptr [ebp+8]
call SYMBGETMANGLEDNAME
add esp, 16
mov dword ptr [ebp-4], eax
cmp dword ptr [ENV+292], 0
je .L_01E8
inc dword ptr [ebp-4]
.L_01E8:
.L_01E7:
sub esp, 8
push -1
mov dword ptr [ebp-40], 0
mov dword ptr [ebp-36], 0
mov dword ptr [ebp-32], 0
push 0
push -1
sub esp, 8
push 3
push offset Lt_01ED
push -1
sub esp, 4
push 0
push dword ptr [ebp-4]
push 18
push offset Lt_01EC
mov dword ptr [ebp-16], 0
mov dword ptr [ebp-12], 0
mov dword ptr [ebp-8], 0
lea eax, [ebp-16]
push eax
call fb_StrConcat
add esp, 24
push eax
mov dword ptr [ebp-28], 0
mov dword ptr [ebp-24], 0
mov dword ptr [ebp-20], 0
lea eax, [ebp-28]
push eax
call fb_StrConcat
add esp, 28
push eax
push -1
lea eax, [ebp-40]
push eax
call fb_StrAssign
add esp, 20
push dword ptr [ebp-40]
call EMITWRITESTR
add esp, 16
sub esp, 12
lea eax, [ebp-40]
push eax
call fb_StrDelete
add esp, 16
.L_01E6:
.L_01E5:
.L_01E4:
pop ebx
mov esp, ebp
pop ebp
.cfi_restore 5
.cfi_def_cfa 4, 4
ret
.size HEMITEXPORT, .-HEMITEXPORT
.cfi_endproc
.balign 16
HDECLVARIABLE:
.type HDECLVARIABLE, @function
.cfi_startproc
push ebp
.cfi_def_cfa_offset 8
.cfi_offset 5, -8
mov ebp, esp
.cfi_def_cfa_register 5
sub esp, 4
push ebx
.L_01F1:
mov eax, dword ptr [ebp+8]
mov ebx, dword ptr [eax+4]
and ebx, 1024
test ebx, ebx
je .L_01F4
mov ebx, dword ptr [ebp+8]
mov eax, dword ptr [ebx+28]
and eax, 511
mov dword ptr [ebp-4], eax
cmp dword ptr [ebp-4], 4
je .L_01F8
.L_01F9:
cmp dword ptr [ebp-4], 7
jne .L_01F7
.L_01F8:
mov eax, dword ptr [ebp+8]
mov ebx, dword ptr [eax+12]
and ebx, 2
test ebx, ebx
jne .L_01FB
jmp .L_01F2
.L_01FB:
.L_01FA:
.L_01F7:
.L_01F5:
sub esp, 12
push dword ptr [ebp+8]
call HEMITVARCONST
add esp, 16
jmp .L_01F2
.L_01F4:
.L_01F3:
mov ebx, dword ptr [ebp+8]
mov eax, dword ptr [ebx+12]
and eax, 32768
test eax, eax
je .L_01FD
jmp .L_01F2
.L_01FD:
.L_01FC:
mov eax, dword ptr [ebp+8]
mov ebx, dword ptr [eax+4]
and ebx, 16
test ebx, ebx
setne bl
shr ebx, 1
sbb ebx, ebx
mov eax, dword ptr [ebp+8]
mov ecx, dword ptr [eax+4]
and ecx, 4
test ecx, ecx
setne cl
shr ecx, 1
sbb ecx, ecx
or ebx, ecx
je .L_01FF
jmp .L_01F2
.L_01FF:
.L_01FE:
mov ecx, dword ptr [ebp+8]
cmp dword ptr [ecx+56], 0
je .L_0201
mov ecx, dword ptr [ebp+8]
mov ebx, dword ptr [ecx+12]
and ebx, 2
test ebx, ebx
jne .L_0203
mov ebx, dword ptr [ebp+8]
mov ecx, dword ptr [ebx+4]
and ecx, 32
test ecx, ecx
jne .L_0205
jmp .L_01F2
.L_0205:
.L_0204:
.L_0203:
.L_0202:
sub esp, 8
push 0
push 1
call _SETSECTION
add esp, 16
sub esp, 12
push dword ptr [ebp+8]
call IRHLFLUSHSTATICINITIALIZER
add esp, 16
jmp .L_01F2
.L_0201:
.L_0200:
sub esp, 12
push dword ptr [ebp+8]
call HEMITVARBSS
add esp, 16
.L_01F2:
pop ebx
mov esp, ebp
pop ebp
.cfi_restore 5
.cfi_def_cfa 4, 4
ret
.size HDECLVARIABLE, .-HDECLVARIABLE
.cfi_endproc
.balign 16
HCLEARLOCALS:
.type HCLEARLOCALS, @function
.cfi_startproc
push ebp
.cfi_def_cfa_offset 8
.cfi_offset 5, -8
mov ebp, esp
.cfi_def_cfa_register 5
sub esp, 84
push ebx
.L_0206:
cmp dword ptr [ebp+8], 0
jne .L_0209
jmp .L_0207
.L_0209:
.L_0208:
cmp dword ptr [ENV+112], 3
jl .L_020B
mov eax, dword ptr [ebp+8]
shr eax, 3
cmp eax, 7
jbe .L_020D
mov eax, dword ptr [EMIT+132]
and eax, 2
test eax, eax
jne .L_020F
sub esp, 12
push offset Lt_0083
call HPUSH
add esp, 16
.L_020F:
.L_020E:
sub esp, 12
mov dword ptr [ebp-36], 0
mov dword ptr [ebp-32], 0
mov dword ptr [ebp-28], 0
push 0
push -1
sub esp, 8
push 2
push offset Lt_0144
push -1
sub esp, 4
push -1
sub esp, 12
mov eax, dword ptr [ebp+8]
add eax, dword ptr [ebp+12]
push eax
call fb_IntToStr
add esp, 16
push eax
push 15
push offset Lt_0210
mov dword ptr [ebp-12], 0
mov dword ptr [ebp-8], 0
mov dword ptr [ebp-4], 0
lea eax, [ebp-12]
push eax
call fb_StrConcat
add esp, 24
push eax
mov dword ptr [ebp-24], 0
mov dword ptr [ebp-20], 0
mov dword ptr [ebp-16], 0
lea eax, [ebp-24]
push eax
call fb_StrConcat
add esp, 28
push eax
push -1
lea eax, [ebp-36]
push eax
call fb_StrAssign
add esp, 20
push dword ptr [ebp-36]
call OUTP
add esp, 16
sub esp, 12
lea eax, [ebp-36]
push eax
call fb_StrDelete
add esp, 16
sub esp, 12
mov dword ptr [ebp-60], 0
mov dword ptr [ebp-56], 0
mov dword ptr [ebp-52], 0
push 0
push -1
sub esp, 8
push -1
sub esp, 12
mov eax, dword ptr [ebp+8]
shr eax, 3
push eax
call fb_UIntToStr
add esp, 16
push eax
push 9
push offset Lt_0214
mov dword ptr [ebp-48], 0
mov dword ptr [ebp-44], 0
mov dword ptr [ebp-40], 0
lea eax, [ebp-48]
push eax
call fb_StrConcat
add esp, 28
push eax
push -1
lea eax, [ebp-60]
push eax
call fb_StrAssign
add esp, 20
push dword ptr [ebp-60]
call OUTP
add esp, 16
sub esp, 12
lea eax, [ebp-60]
push eax
call fb_StrDelete
add esp, 16
sub esp, 12
push offset Lt_0217
call OUTP
add esp, 16
sub esp, 12
push 0
push 0
sub esp, 12
call SYMBUNIQUELABEL
add esp, 12
push eax
push -1
push offset Lt_0B4B
call fb_StrAssign
add esp, 32
sub esp, 12
push dword ptr [Lt_0B4B]
call HLABEL
add esp, 16
sub esp, 12
push offset Lt_0218
call OUTP
add esp, 16
sub esp, 12
push offset Lt_0219
call OUTP
add esp, 16
sub esp, 12
push offset Lt_021A
call OUTP
add esp, 16
sub esp, 12
mov dword ptr [ebp-84], 0
mov dword ptr [ebp-80], 0
mov dword ptr [ebp-76], 0
push 0
push -1
sub esp, 8
push -1
push offset Lt_0B4B
push 5
push offset Lt_021B
mov dword ptr [ebp-72], 0
mov dword ptr [ebp-68], 0
mov dword ptr [ebp-64], 0
lea eax, [ebp-72]
push eax
call fb_StrConcat
add esp, 28
push eax
push -1
lea eax, [ebp-84]
push eax
call fb_StrAssign
add esp, 20
push dword ptr [ebp-84]
call OUTP
add esp, 16
sub esp, 12
lea eax, [ebp-84]
push eax
call fb_StrDelete
add esp, 16
sub esp, 12
push offset Lt_021E
call OUTP
add esp, 16
mov eax, dword ptr [EMIT+132]
and eax, 2
test eax, eax
jne .L_0220
sub esp, 12
push offset Lt_0083
call HPOP
add esp, 16
.L_0220:
.L_021F:
jmp .L_020C
.L_020D:
mov eax, dword ptr [ebp+8]
shr eax, 3
test eax, eax
jbe .L_0221
sub esp, 12
push offset Lt_0217
call OUTP
add esp, 16
mov eax, dword ptr [ebp+8]
shr eax, 3
mov ebx, eax
mov dword ptr [Lt_0B4C], ebx
jmp .L_0222
.L_0225:
sub esp, 12
mov dword ptr [ebp-36], 0
mov dword ptr [ebp-32], 0
mov dword ptr [ebp-28], 0
push 0
push -1
sub esp, 8
push 7
push offset Lt_0227
push -1
sub esp, 4
push -1
sub esp, 12
mov ebx, dword ptr [Lt_0B4C]
sal ebx, 3
push ebx
call fb_IntToStr
add esp, 16
push eax
push 11
push offset Lt_0226
mov dword ptr [ebp-12], 0
mov dword ptr [ebp-8], 0
mov dword ptr [ebp-4], 0
lea eax, [ebp-12]
push eax
call fb_StrConcat
add esp, 24
push eax
mov dword ptr [ebp-24], 0
mov dword ptr [ebp-20], 0
mov dword ptr [ebp-16], 0
lea eax, [ebp-24]
push eax
call fb_StrConcat
add esp, 28
push eax
push -1
lea eax, [ebp-36]
push eax
call fb_StrAssign
add esp, 20
push dword ptr [ebp-36]
call OUTP
add esp, 16
sub esp, 12
lea eax, [ebp-36]
push eax
call fb_StrDelete
add esp, 16
.L_0223:
dec dword ptr [Lt_0B4C]
.L_0222:
cmp dword ptr [Lt_0B4C], 1
jge .L_0225
.L_0224:
sub esp, 12
push offset Lt_021E
call OUTP
add esp, 16
.L_0221:
.L_020C:
mov eax, dword ptr [ebp+8]
and eax, 4
je .L_022C
sub esp, 12
mov dword ptr [ebp-36], 0
mov dword ptr [ebp-32], 0
mov dword ptr [ebp-28], 0
push 0
push -1
sub esp, 8
push 5
push offset Lt_022E
push -1
sub esp, 4
push -1
sub esp, 12
mov eax, dword ptr [ebp+8]
add eax, dword ptr [ebp+12]
push eax
call fb_IntToStr
add esp, 16
push eax
push 20
push offset Lt_022D
mov dword ptr [ebp-12], 0
mov dword ptr [ebp-8], 0
mov dword ptr [ebp-4], 0
lea eax, [ebp-12]
push eax
call fb_StrConcat
add esp, 24
push eax
mov dword ptr [ebp-24], 0
mov dword ptr [ebp-20], 0
mov dword ptr [ebp-16], 0
lea eax, [ebp-24]
push eax
call fb_StrConcat
add esp, 28
push eax
push -1
lea eax, [ebp-36]
push eax
call fb_StrAssign
add esp, 20
push dword ptr [ebp-36]
call OUTP
add esp, 16
sub esp, 12
lea eax, [ebp-36]
push eax
call fb_StrDelete
add esp, 16
.L_022C:
.L_022B:
jmp .L_0207
.L_020B:
.L_020A:
mov eax, dword ptr [ebp+8]
shr eax, 2
cmp eax, 6
jbe .L_0233
mov eax, dword ptr [EMIT+132]
and eax, 2
test eax, eax
jne .L_0235
sub esp, 12
push offset Lt_0083
call HPUSH
add esp, 16
.L_0235:
.L_0234:
sub esp, 12
mov dword ptr [ebp-36], 0
mov dword ptr [ebp-32], 0
mov dword ptr [ebp-28], 0
push 0
push -1
sub esp, 8
push 2
push offset Lt_0144
push -1
sub esp, 4
push -1
sub esp, 12
mov eax, dword ptr [ebp+8]
add eax, dword ptr [ebp+12]
push eax
call fb_IntToStr
add esp, 16
push eax
push 15
push offset Lt_0210
mov dword ptr [ebp-12], 0
mov dword ptr [ebp-8], 0
mov dword ptr [ebp-4], 0
lea eax, [ebp-12]
push eax
call fb_StrConcat
add esp, 24
push eax
mov dword ptr [ebp-24], 0
mov dword ptr [ebp-20], 0
mov dword ptr [ebp-16], 0
lea eax, [ebp-24]
push eax
call fb_StrConcat
add esp, 28
push eax
push -1
lea eax, [ebp-36]
push eax
call fb_StrAssign
add esp, 20
push dword ptr [ebp-36]
call OUTP
add esp, 16
sub esp, 12
lea eax, [ebp-36]
push eax
call fb_StrDelete
add esp, 16
sub esp, 12
mov dword ptr [ebp-60], 0
mov dword ptr [ebp-56], 0
mov dword ptr [ebp-52], 0
push 0
push -1
sub esp, 8
push -1
sub esp, 12
mov eax, dword ptr [ebp+8]
shr eax, 2
push eax
call fb_UIntToStr
add esp, 16
push eax
push 9
push offset Lt_0214
mov dword ptr [ebp-48], 0
mov dword ptr [ebp-44], 0
mov dword ptr [ebp-40], 0
lea eax, [ebp-48]
push eax
call fb_StrConcat
add esp, 28
push eax
push -1
lea eax, [ebp-60]
push eax
call fb_StrAssign
add esp, 20
push dword ptr [ebp-60]
call OUTP
add esp, 16
sub esp, 12
lea eax, [ebp-60]
push eax
call fb_StrDelete
add esp, 16
sub esp, 12
push offset Lt_023B
call OUTP
add esp, 16
sub esp, 12
push offset Lt_023C
call OUTP
add esp, 16
mov eax, dword ptr [EMIT+132]
and eax, 2
test eax, eax
jne .L_023E
sub esp, 12
push offset Lt_0083
call HPOP
add esp, 16
.L_023E:
.L_023D:
jmp .L_0232
.L_0233:
mov eax, dword ptr [ebp+8]
shr eax, 2
mov ebx, eax
mov dword ptr [Lt_0B4C], ebx
jmp .L_023F
.L_0242:
sub esp, 12
mov dword ptr [ebp-36], 0
mov dword ptr [ebp-32], 0
mov dword ptr [ebp-28], 0
push 0
push -1
sub esp, 8
push 5
push offset Lt_022E
push -1
sub esp, 4
push -1
sub esp, 12
mov ebx, dword ptr [Lt_0B4C]
sal ebx, 2
add ebx, dword ptr [ebp+12]
push ebx
call fb_IntToStr
add esp, 16
push eax
push 20
push offset Lt_022D
mov dword ptr [ebp-12], 0
mov dword ptr [ebp-8], 0
mov dword ptr [ebp-4], 0
lea eax, [ebp-12]
push eax
call fb_StrConcat
add esp, 24
push eax
mov dword ptr [ebp-24], 0
mov dword ptr [ebp-20], 0
mov dword ptr [ebp-16], 0
lea eax, [ebp-24]
push eax
call fb_StrConcat
add esp, 28
push eax
push -1
lea eax, [ebp-36]
push eax
call fb_StrAssign
add esp, 20
push dword ptr [ebp-36]
call OUTP
add esp, 16
sub esp, 12
lea eax, [ebp-36]
push eax
call fb_StrDelete
add esp, 16
.L_0240:
dec dword ptr [Lt_0B4C]
.L_023F:
cmp dword ptr [Lt_0B4C], 1
jge .L_0242
.L_0241:
.L_0232:
.L_0207:
pop ebx
mov esp, ebp
pop ebp
.cfi_restore 5
.cfi_def_cfa 4, 4
ret
.size HCLEARLOCALS, .-HCLEARLOCALS
.cfi_endproc

.section .bss
.balign 4
	.lcomm	Lt_0B4C,4
.balign 4
	.lcomm	Lt_0B4B,12

.section .text
.balign 16
HFRAMEBYTESTOALLOC:
.type HFRAMEBYTESTOALLOC, @function
.cfi_startproc
push ebp
.cfi_def_cfa_offset 8
.cfi_offset 5, -8
mov ebp, esp
.cfi_def_cfa_register 5
sub esp, 4
push ebx
mov dword ptr [ebp-4], 0
.L_0246:
mov eax, dword ptr [ebp+8]
mov ebx, dword ptr [eax+112]
mov eax, dword ptr [ebx+12]
add eax, 3
and eax, -4
mov dword ptr [Lt_0B4D], eax
mov eax, dword ptr [ENV+284]
and eax, 64
test eax, eax
je .L_0249
mov dword ptr [Lt_0B4E], 8
mov eax, dword ptr [EMIT+132]
and eax, 2
test eax, eax
je .L_024B
add dword ptr [Lt_0B4E], 4
.L_024B:
.L_024A:
mov eax, dword ptr [EMIT+132]
and eax, 4
test eax, eax
je .L_024D
add dword ptr [Lt_0B4E], 4
.L_024D:
.L_024C:
mov eax, dword ptr [EMIT+132]
and eax, 16
test eax, eax
je .L_024F
add dword ptr [Lt_0B4E], 4
.L_024F:
.L_024E:
mov eax, dword ptr [Lt_0B4E]
add dword ptr [Lt_0B4D], eax
mov eax, dword ptr [Lt_0B4D]
add eax, 15
and eax, -16
mov dword ptr [Lt_0B4D], eax
mov eax, dword ptr [Lt_0B4E]
sub dword ptr [Lt_0B4D], eax
.L_0249:
.L_0248:
mov eax, dword ptr [Lt_0B4D]
mov dword ptr [ebp-4], eax
.L_0247:
mov eax, dword ptr [ebp-4]
pop ebx
mov esp, ebp
pop ebp
.cfi_restore 5
.cfi_def_cfa 4, 4
ret
.size HFRAMEBYTESTOALLOC, .-HFRAMEBYTESTOALLOC
.cfi_endproc

.section .bss
.balign 4
	.lcomm	Lt_0B4D,4
.balign 4
	.lcomm	Lt_0B4E,4

.section .text
.balign 16
HSTOREREGISTERARGUMENT:
.type HSTOREREGISTERARGUMENT, @function
.cfi_startproc
push ebp
.cfi_def_cfa_offset 8
.cfi_offset 5, -8
mov ebp, esp
.cfi_def_cfa_register 5
sub esp, 68
push ebx
.L_0250:
sub esp, 12
push 0
push 1
push offset Lt_0000
push -1
lea eax, [ebp-12]
push eax
call fb_StrInit
add esp, 32
mov eax, dword ptr [ebp+8]
mov ebx, dword ptr [eax+60]
mov ecx, dword ptr [ebx+48]
mov eax, dword ptr [ebx+52]
mov dword ptr [ebp-20], ecx
mov dword ptr [ebp-16], eax
sub esp, 12
push 0
push 15
push offset Lt_0252
push -1
lea ecx, [ebp-12]
push ecx
call fb_StrAssign
add esp, 32
cmp dword ptr [ebp-16], 0
jl .L_0254
jg .L_0B4F
cmp dword ptr [ebp-20], 0
jbe .L_0254
.L_0B4F:
sub esp, 12
push 0
push 2
push offset Lt_0115
push -1
lea ecx, [ebp-12]
push ecx
call fb_StrConcatAssign
add esp, 32
.L_0254:
.L_0253:
cmp dword ptr [ebp-16], 0
jne .L_0B50
cmp dword ptr [ebp-20], 0
je .L_0256
.L_0B50:
sub esp, 12
push 0
push -1
sub esp, 4
push dword ptr [ebp-16]
push dword ptr [ebp-20]
call fb_LongintToStr
add esp, 12
push eax
push -1
lea eax, [ebp-12]
push eax
call fb_StrConcatAssign
add esp, 32
.L_0256:
.L_0255:
sub esp, 12
push 0
push 2
push offset Lt_0144
push -1
lea eax, [ebp-12]
push eax
call fb_StrConcatAssign
add esp, 32
sub esp, 12
mov dword ptr [ebp-68], 0
mov dword ptr [ebp-64], 0
mov dword ptr [ebp-60], 0
push 0
push -1
sub esp, 8
push -1
push dword ptr [ebp+12]
push -1
sub esp, 4
push 3
push offset Lt_0073
push -1
sub esp, 4
push -1
lea eax, [ebp-12]
push eax
push 5
push offset Lt_017D
mov dword ptr [ebp-32], 0
mov dword ptr [ebp-28], 0
mov dword ptr [ebp-24], 0
lea eax, [ebp-32]
push eax
call fb_StrConcat
add esp, 24
push eax
mov dword ptr [ebp-44], 0
mov dword ptr [ebp-40], 0
mov dword ptr [ebp-36], 0
lea eax, [ebp-44]
push eax
call fb_StrConcat
add esp, 24
push eax
mov dword ptr [ebp-56], 0
mov dword ptr [ebp-52], 0
mov dword ptr [ebp-48], 0
lea eax, [ebp-56]
push eax
call fb_StrConcat
add esp, 28
push eax
push -1
lea eax, [ebp-68]
push eax
call fb_StrAssign
add esp, 20
push dword ptr [ebp-68]
call OUTP
add esp, 16
sub esp, 12
lea eax, [ebp-68]
push eax
call fb_StrDelete
add esp, 16
sub esp, 12
lea eax, [ebp-12]
push eax
call fb_StrDelete
add esp, 16
.L_0251:
pop ebx
mov esp, ebp
pop ebp
.cfi_restore 5
.cfi_def_cfa 4, 4
ret
.size HSTOREREGISTERARGUMENT, .-HSTOREREGISTERARGUMENT
.cfi_endproc
.balign 16
HSTOREREGISTERARGUMENTS:
.type HSTOREREGISTERARGUMENTS, @function
.cfi_startproc
push ebp
.cfi_def_cfa_offset 8
.cfi_offset 5, -8
mov ebp, esp
.cfi_def_cfa_register 5
sub esp, 20
push ebx
.L_025B:
mov eax, dword ptr [ebp+8]
mov ebx, dword ptr [eax+76]
mov dword ptr [ebp-4], ebx
.L_025D:
cmp dword ptr [ebp-4], 0
je .L_025E
mov ebx, dword ptr [ebp-4]
mov eax, dword ptr [ebx+76]
mov dword ptr [ebp-8], eax
cmp dword ptr [ebp-8], 1
jne .L_0261
.L_0262:
sub esp, 8
mov dword ptr [ebp-20], 0
mov dword ptr [ebp-16], 0
mov dword ptr [ebp-12], 0
sub esp, 4
push 0
push 4
push offset Lt_0085
push -1
lea eax, [ebp-20]
push eax
call fb_StrAssign
add esp, 24
lea eax, [ebp-20]
push eax
push dword ptr [ebp-4]
call HSTOREREGISTERARGUMENT
add esp, 16
sub esp, 12
lea eax, [ebp-20]
push eax
call fb_StrDelete
add esp, 16
jmp .L_025F
.L_0261:
cmp dword ptr [ebp-8], 2
jne .L_0264
.L_0265:
sub esp, 8
mov dword ptr [ebp-20], 0
mov dword ptr [ebp-16], 0
mov dword ptr [ebp-12], 0
sub esp, 4
push 0
push 4
push offset Lt_0082
push -1
lea eax, [ebp-20]
push eax
call fb_StrAssign
add esp, 24
lea eax, [ebp-20]
push eax
push dword ptr [ebp-4]
call HSTOREREGISTERARGUMENT
add esp, 16
sub esp, 12
lea eax, [ebp-20]
push eax
call fb_StrDelete
add esp, 16
.L_0264:
.L_025F:
mov eax, dword ptr [ebp-4]
mov ebx, dword ptr [eax+172]
mov dword ptr [ebp-4], ebx
jmp .L_025D
.L_025E:
.L_025C:
pop ebx
mov esp, ebp
pop ebp
.cfi_restore 5
.cfi_def_cfa 4, 4
ret
.size HSTOREREGISTERARGUMENTS, .-HSTOREREGISTERARGUMENTS
.cfi_endproc
.balign 16
HCREATEFRAME:
.type HCREATEFRAME, @function
.cfi_startproc
push ebp
.cfi_def_cfa_offset 8
.cfi_offset 5, -8
mov ebp, esp
.cfi_def_cfa_register 5
sub esp, 84
push ebx
.L_0267:
cmp dword ptr [ENV+108], 2
jne .L_0269
sub esp, 12
push 21
call FBGETOPTION
add esp, 16
test eax, eax
setne al
shr eax, 1
sbb eax, eax
mov dword ptr [ebp-4], eax
jmp .L_0B51
.L_0269:
mov dword ptr [ebp-4], 0
.L_0B51:
mov eax, dword ptr [ebp-4]
mov dword ptr [Lt_0B53], eax
mov eax, dword ptr [ebp+8]
mov ebx, dword ptr [eax+8]
and ebx, 128
test ebx, ebx
jne .L_026C
sub esp, 12
push dword ptr [ebp+8]
call HFRAMEBYTESTOALLOC
add esp, 16
mov dword ptr [Lt_0B54], eax
mov eax, dword ptr [Lt_0B54]
test eax, eax
setne al
shr eax, 1
sbb eax, eax
mov ebx, dword ptr [ebp+8]
mov ecx, dword ptr [ebx+112]
mov ebx, dword ptr [ecx+4]
cmp ebx, 8
setne bl
shr ebx, 1
sbb ebx, ebx
or eax, ebx
mov ebx, dword ptr [ebp+8]
mov ecx, dword ptr [ebx+12]
and ecx, 4096
test ecx, ecx
setne cl
shr ecx, 1
sbb ecx, ecx
or eax, ecx
or eax, dword ptr [ENV+148]
or eax, dword ptr [ENV+184]
je .L_026E
sub esp, 12
push offset Lt_0088
call HPUSH
add esp, 16
cmp dword ptr [Lt_0B53], 0
je .L_0270
sub esp, 12
push offset Lt_0271
call OUTP
add esp, 16
sub esp, 12
push offset Lt_0272
call OUTP
add esp, 16
.L_0270:
.L_026F:
sub esp, 12
push offset Lt_0273
call OUTP
add esp, 16
cmp dword ptr [Lt_0B53], 0
je .L_0275
sub esp, 12
push offset Lt_0276
call OUTP
add esp, 16
.L_0275:
mov eax, dword ptr [ebp+8]
mov ecx, dword ptr [eax+12]
and ecx, 4096
test ecx, ecx
je .L_0278
sub esp, 12
push offset Lt_0279
call OUTP
add esp, 16
add dword ptr [Lt_0B54], 8
.L_0278:
.L_0277:
cmp dword ptr [Lt_0B54], 0
jle .L_027B
sub esp, 12
mov dword ptr [ebp-28], 0
mov dword ptr [ebp-24], 0
mov dword ptr [ebp-20], 0
push 0
push -1
sub esp, 8
push -1
sub esp, 12
push dword ptr [Lt_0B54]
call fb_IntToStr
add esp, 16
push eax
push 10
push offset Lt_027C
mov dword ptr [ebp-16], 0
mov dword ptr [ebp-12], 0
mov dword ptr [ebp-8], 0
lea eax, [ebp-16]
push eax
call fb_StrConcat
add esp, 28
push eax
push -1
lea eax, [ebp-28]
push eax
call fb_StrAssign
add esp, 20
push dword ptr [ebp-28]
call OUTP
add esp, 16
sub esp, 12
lea eax, [ebp-28]
push eax
call fb_StrDelete
add esp, 16
.L_027B:
.L_027A:
.L_026E:
.L_026D:
cmp dword ptr [ENV+108], 3
jne .L_0280
cmp dword ptr [ENV+184], 0
je .L_0282
call SYMBMAKEPROFILELABELNAME
mov dword ptr [Lt_0B58], eax
sub esp, 8
push 0
push offset Lt_0284
call OUTEX
add esp, 16
sub esp, 8
push 0
push offset Lt_0286
call OUTEX
add esp, 16
sub esp, 8
push 0
mov dword ptr [ebp-52], 0
mov dword ptr [ebp-48], 0
mov dword ptr [ebp-44], 0
push 0
push -1
sub esp, 8
push 2
push offset Lt_016A
push -1
sub esp, 4
push 2
push offset Lt_0192
push -1
sub esp, 4
push 0
push dword ptr [Lt_0B58]
push 2
push offset Lt_0007
mov dword ptr [ebp-16], 0
mov dword ptr [ebp-12], 0
mov dword ptr [ebp-8], 0
lea eax, [ebp-16]
push eax
call fb_StrConcat
add esp, 24
push eax
mov dword ptr [ebp-28], 0
mov dword ptr [ebp-24], 0
mov dword ptr [ebp-20], 0
lea eax, [ebp-28]
push eax
call fb_StrConcat
add esp, 24
push eax
mov dword ptr [ebp-40], 0
mov dword ptr [ebp-36], 0
mov dword ptr [ebp-32], 0
lea eax, [ebp-40]
push eax
call fb_StrConcat
add esp, 28
push eax
push -1
lea eax, [ebp-52]
push eax
call fb_StrAssign
add esp, 20
push dword ptr [ebp-52]
call OUTEX
add esp, 16
sub esp, 12
lea eax, [ebp-52]
push eax
call fb_StrDelete
add esp, 16
sub esp, 12
push offset Lt_028B
call OUTP
add esp, 16
sub esp, 8
push 0
push offset Lt_028D
call OUTEX
add esp, 16
sub esp, 12
mov dword ptr [ebp-76], 0
mov dword ptr [ebp-72], 0
mov dword ptr [ebp-68], 0
push 0
push -1
sub esp, 8
push 0
push dword ptr [Lt_0B58]
push 18
push offset Lt_028E
mov dword ptr [ebp-64], 0
mov dword ptr [ebp-60], 0
mov dword ptr [ebp-56], 0
lea eax, [ebp-64]
push eax
call fb_StrConcat
add esp, 28
push eax
push -1
lea eax, [ebp-76]
push eax
call fb_StrAssign
add esp, 20
push dword ptr [ebp-76]
call OUTP
add esp, 16
sub esp, 12
lea eax, [ebp-76]
push eax
call fb_StrDelete
add esp, 16
sub esp, 12
push offset Lt_0291
call OUTP
add esp, 16
.L_0282:
.L_0281:
.L_0280:
.L_027F:
mov eax, dword ptr [EMIT+132]
and eax, 16
test eax, eax
je .L_0293
sub esp, 12
push offset Lt_0086
call HPUSH
add esp, 16
.L_0293:
.L_0292:
mov eax, dword ptr [EMIT+132]
and eax, 4
test eax, eax
je .L_0295
sub esp, 12
push offset Lt_0084
call HPUSH
add esp, 16
.L_0295:
.L_0294:
mov eax, dword ptr [EMIT+132]
and eax, 2
test eax, eax
je .L_0297
sub esp, 12
push offset Lt_0083
call HPUSH
add esp, 16
.L_0297:
.L_0296:
sub esp, 12
push dword ptr [ebp+8]
call HSTOREREGISTERARGUMENTS
add esp, 16
.L_026C:
.L_026B:
.L_0268:
pop ebx
mov esp, ebp
pop ebp
.cfi_restore 5
.cfi_def_cfa 4, 4
ret
.size HCREATEFRAME, .-HCREATEFRAME
.cfi_endproc

.section .bss
.balign 4
	.lcomm	Lt_0B54,4
.balign 4
	.lcomm	Lt_0B59,4
.balign 4
	.lcomm	Lt_0B5A,4
.balign 4
	.lcomm	Lt_0B58,4
.balign 4
	.lcomm	Lt_0B53,4

.section .text
.balign 16
HDESTROYFRAME:
.type HDESTROYFRAME, @function
.cfi_startproc
push ebp
.cfi_def_cfa_offset 8
.cfi_offset 5, -8
mov ebp, esp
.cfi_def_cfa_register 5
sub esp, 68
push ebx
.L_0298:
mov eax, dword ptr [ENV+108]
cmp eax, 2
sete al
shr eax, 1
sbb eax, eax
mov dword ptr [Lt_0B5D], eax
mov eax, dword ptr [ebp+8]
mov ebx, dword ptr [eax+8]
and ebx, 128
test ebx, ebx
jne .L_029B
cmp dword ptr [Lt_0B5D], 0
je .L_029C
sub esp, 12
push 21
call FBGETOPTION
add esp, 16
test eax, eax
setne al
shr eax, 1
sbb eax, eax
mov dword ptr [ebp-4], eax
jmp .L_0B5B
.L_029C:
mov dword ptr [ebp-4], 0
.L_0B5B:
mov eax, dword ptr [ebp-4]
mov dword ptr [Lt_0B5F], eax
sub esp, 12
push dword ptr [ebp+8]
call HFRAMEBYTESTOALLOC
add esp, 16
mov dword ptr [Lt_0B60], eax
mov eax, dword ptr [EMIT+132]
and eax, 2
test eax, eax
je .L_029F
sub esp, 12
push offset Lt_0083
call HPOP
add esp, 16
.L_029F:
.L_029E:
mov eax, dword ptr [EMIT+132]
and eax, 4
test eax, eax
je .L_02A1
sub esp, 12
push offset Lt_0084
call HPOP
add esp, 16
.L_02A1:
.L_02A0:
mov eax, dword ptr [EMIT+132]
and eax, 16
test eax, eax
je .L_02A3
sub esp, 12
push offset Lt_0086
call HPOP
add esp, 16
.L_02A3:
.L_02A2:
mov eax, dword ptr [Lt_0B60]
test eax, eax
setne al
shr eax, 1
sbb eax, eax
mov ebx, dword ptr [ebp+8]
mov ecx, dword ptr [ebx+112]
mov ebx, dword ptr [ecx+4]
cmp ebx, 8
setne bl
shr ebx, 1
sbb ebx, ebx
or eax, ebx
mov ebx, dword ptr [ebp+8]
mov ecx, dword ptr [ebx+12]
and ecx, 4096
test ecx, ecx
setne cl
shr ecx, 1
sbb ecx, ecx
or eax, ecx
or eax, dword ptr [ENV+148]
or eax, dword ptr [ENV+184]
je .L_02A5
sub esp, 12
push offset Lt_02A6
call OUTP
add esp, 16
sub esp, 12
push offset Lt_0088
call HPOP
add esp, 16
cmp dword ptr [Lt_0B5F], 0
je .L_02A8
sub esp, 12
push offset Lt_02A9
call OUTP
add esp, 16
sub esp, 12
push offset Lt_02AA
call OUTP
add esp, 16
.L_02A8:
.L_02A7:
.L_02A5:
.L_02A4:
cmp dword ptr [ebp+12], 0
jle .L_02AC
sub esp, 12
mov dword ptr [ebp-28], 0
mov dword ptr [ebp-24], 0
mov dword ptr [ebp-20], 0
push 0
push -1
sub esp, 8
push -1
sub esp, 12
push dword ptr [ebp+12]
call fb_IntToStr
add esp, 16
push eax
push 5
push offset Lt_02AD
mov dword ptr [ebp-16], 0
mov dword ptr [ebp-12], 0
mov dword ptr [ebp-8], 0
lea eax, [ebp-16]
push eax
call fb_StrConcat
add esp, 28
push eax
push -1
lea eax, [ebp-28]
push eax
call fb_StrAssign
add esp, 20
push dword ptr [ebp-28]
call OUTP
add esp, 16
sub esp, 12
lea eax, [ebp-28]
push eax
call fb_StrDelete
add esp, 16
jmp .L_02AB
.L_02AC:
sub esp, 12
push offset Lt_02B0
call OUTP
add esp, 16
.L_02AB:
.L_029B:
.L_029A:
cmp dword ptr [Lt_0B5D], 0
je .L_02B2
sub esp, 8
push 0
mov dword ptr [ebp-60], 0
mov dword ptr [ebp-56], 0
mov dword ptr [ebp-52], 0
push 0
push -1
sub esp, 8
push 2
push offset Lt_016A
push -1
sub esp, 4
push 0
sub esp, 12
push dword ptr [ebp+8]
call SYMBGETMANGLEDNAME
add esp, 16
push eax
push -1
sub esp, 4
push 5
push offset Lt_02B4
push -1
sub esp, 4
push 0
sub esp, 12
push dword ptr [ebp+8]
call SYMBGETMANGLEDNAME
add esp, 16
push eax
push 7
push offset Lt_02B3
mov dword ptr [ebp-12], 0
mov dword ptr [ebp-8], 0
mov dword ptr [ebp-4], 0
lea eax, [ebp-12]
push eax
call fb_StrConcat
add esp, 24
push eax
mov dword ptr [ebp-24], 0
mov dword ptr [ebp-20], 0
mov dword ptr [ebp-16], 0
lea eax, [ebp-24]
push eax
call fb_StrConcat
add esp, 24
push eax
mov dword ptr [ebp-36], 0
mov dword ptr [ebp-32], 0
mov dword ptr [ebp-28], 0
lea eax, [ebp-36]
push eax
call fb_StrConcat
add esp, 24
push eax
mov dword ptr [ebp-48], 0
mov dword ptr [ebp-44], 0
mov dword ptr [ebp-40], 0
lea eax, [ebp-48]
push eax
call fb_StrConcat
add esp, 28
push eax
push -1
lea eax, [ebp-60]
push eax
call fb_StrAssign
add esp, 20
push dword ptr [ebp-60]
call OUTEX
add esp, 16
sub esp, 12
lea eax, [ebp-60]
push eax
call fb_StrDelete
add esp, 16
.L_02B2:
.L_02B1:
.L_0299:
pop ebx
mov esp, ebp
pop ebp
.cfi_restore 5
.cfi_def_cfa 4, 4
ret
.size HDESTROYFRAME, .-HDESTROYFRAME
.cfi_endproc

.section .bss
.balign 4
	.lcomm	Lt_0B5D,4
.balign 4
	.lcomm	Lt_0B60,4
.balign 4
	.lcomm	Lt_0B5F,4

.section .text
.balign 16
_EMITLIT:
.type _EMITLIT, @function
.cfi_startproc
push ebp
.cfi_def_cfa_offset 8
.cfi_offset 5, -8
mov ebp, esp
.cfi_def_cfa_register 5
sub esp, 24
.L_02BA:
mov dword ptr [ebp-12], 0
mov dword ptr [ebp-8], 0
mov dword ptr [ebp-4], 0
sub esp, 12
push 0
push -1
sub esp, 8
push 2
push offset Lt_016A
push 0
push dword ptr [ebp+8]
mov dword ptr [ebp-24], 0
mov dword ptr [ebp-20], 0
mov dword ptr [ebp-16], 0
lea eax, [ebp-24]
push eax
call fb_StrConcat
add esp, 28
push eax
push -1
lea eax, [ebp-12]
push eax
call fb_StrAssign
add esp, 32
sub esp, 8
push 0
push dword ptr [ebp-12]
call OUTEX
add esp, 16
sub esp, 12
lea eax, [ebp-12]
push eax
call fb_StrDelete
add esp, 16
.L_02BB:
mov esp, ebp
pop ebp
.cfi_restore 5
.cfi_def_cfa 4, 4
ret
.size _EMITLIT, .-_EMITLIT
.cfi_endproc
.balign 16
_EMITJMPTB:
.type _EMITJMPTB, @function
.cfi_startproc
push ebp
.cfi_def_cfa_offset 8
.cfi_offset 5, -8
mov ebp, esp
.cfi_def_cfa_register 5
sub esp, 108
push ebx
push esi
push edi
.L_02BD:
mov dword ptr [ebp-12], 0
mov dword ptr [ebp-8], 0
mov dword ptr [ebp-4], 0
mov dword ptr [ebp-24], 0
mov dword ptr [ebp-20], 0
mov dword ptr [ebp-16], 0
sub esp, 12
push 0
push 0
sub esp, 8
push dword ptr [ebp+24]
call SYMBGETMANGLEDNAME
add esp, 12
push eax
push -1
lea eax, [ebp-12]
push eax
call fb_StrAssign
add esp, 32
sub esp, 12
push 0
push 0
sub esp, 8
push dword ptr [ebp+8]
call SYMBGETMANGLEDNAME
add esp, 12
push eax
push -1
lea eax, [ebp-24]
push eax
call fb_StrAssign
add esp, 32
sub esp, 8
push 0
mov dword ptr [ebp-60], 0
mov dword ptr [ebp-56], 0
mov dword ptr [ebp-52], 0
push 0
push -1
sub esp, 8
push 2
push offset Lt_016A
push -1
sub esp, 4
push 2
push offset Lt_0192
push -1
lea eax, [ebp-24]
push eax
mov dword ptr [ebp-36], 0
mov dword ptr [ebp-32], 0
mov dword ptr [ebp-28], 0
lea eax, [ebp-36]
push eax
call fb_StrConcat
add esp, 24
push eax
mov dword ptr [ebp-48], 0
mov dword ptr [ebp-44], 0
mov dword ptr [ebp-40], 0
lea eax, [ebp-48]
push eax
call fb_StrConcat
add esp, 28
push eax
push -1
lea eax, [ebp-60]
push eax
call fb_StrAssign
add esp, 20
push dword ptr [ebp-60]
call OUTEX
add esp, 16
sub esp, 12
lea eax, [ebp-60]
push eax
call fb_StrDelete
add esp, 16
mov dword ptr [ebp-64], 0
mov dword ptr [ebp-68], 0
.L_02C2:
mov dword ptr [ebp-72], 0
mov ebx, dword ptr [ebp-68]
mov eax, ebx
sar eax, 31
mov ecx, dword ptr [ebp-64]
sal ecx, 3
mov esi, dword ptr [ebp+12]
add esi, ecx
mov edi, dword ptr [esi]
mov ecx, dword ptr [esi+4]
cmp eax, ecx
jne .L_02C6
cmp ebx, edi
jne .L_02C6
.L_0B64:
mov edi, dword ptr [ebp-64]
sal edi, 2
mov ecx, dword ptr [ebp+16]
add ecx, edi
mov edi, dword ptr [ecx]
mov dword ptr [ebp-72], edi
inc dword ptr [ebp-64]
jmp .L_02C5
.L_02C6:
mov edi, dword ptr [ebp+24]
mov dword ptr [ebp-72], edi
.L_02C5:
sub esp, 12
mov dword ptr [ebp-108], 0
mov dword ptr [ebp-104], 0
mov dword ptr [ebp-100], 0
push 0
push -1
sub esp, 8
push 0
sub esp, 12
push dword ptr [ebp-72]
call SYMBGETMANGLEDNAME
add esp, 16
push eax
push -1
sub esp, 4
push 2
push offset Lt_016E
push 0
sub esp, 4
push 9
call _GETTYPESTRING
add esp, 8
push eax
mov dword ptr [ebp-84], 0
mov dword ptr [ebp-80], 0
mov dword ptr [ebp-76], 0
lea eax, [ebp-84]
push eax
call fb_StrConcat
add esp, 24
push eax
mov dword ptr [ebp-96], 0
mov dword ptr [ebp-92], 0
mov dword ptr [ebp-88], 0
lea eax, [ebp-96]
push eax
call fb_StrConcat
add esp, 28
push eax
push -1
lea eax, [ebp-108]
push eax
call fb_StrAssign
add esp, 20
push dword ptr [ebp-108]
call OUTP
add esp, 16
sub esp, 12
lea eax, [ebp-108]
push eax
call fb_StrDelete
add esp, 16
mov edi, dword ptr [ebp-68]
mov eax, edi
sar eax, 31
mov ebx, dword ptr [ebp+36]
mov ecx, dword ptr [ebp+40]
cmp eax, ecx
jne .L_02CB
cmp edi, ebx
jne .L_02CB
.L_0B65:
jmp .L_02C3
.L_02CB:
.L_02CA:
inc dword ptr [ebp-68]
.L_02C4:
jmp .L_02C2
.L_02C3:
sub esp, 12
lea ebx, [ebp-24]
push ebx
call fb_StrDelete
add esp, 16
sub esp, 12
lea ebx, [ebp-12]
push ebx
call fb_StrDelete
add esp, 16
.L_02BE:
pop edi
pop esi
pop ebx
mov esp, ebp
pop ebp
.cfi_restore 5
.cfi_def_cfa 4, 4
ret
.size _EMITJMPTB, .-_EMITJMPTB
.cfi_endproc
.balign 16
_EMITCALL:
.type _EMITCALL, @function
.cfi_startproc
push ebp
.cfi_def_cfa_offset 8
.cfi_offset 5, -8
mov ebp, esp
.cfi_def_cfa_register 5
sub esp, 24
.L_02CC:
sub esp, 12
push 0
push 6
push offset Lt_02CE
push -1
push offset Lt_0B66
call fb_StrAssign
add esp, 32
sub esp, 12
push 0
push -1
sub esp, 8
push 0
sub esp, 12
push dword ptr [ebp+12]
call SYMBGETMANGLEDNAME
add esp, 16
push eax
push -1
push offset Lt_0B66
mov dword ptr [ebp-12], 0
mov dword ptr [ebp-8], 0
mov dword ptr [ebp-4], 0
lea eax, [ebp-12]
push eax
call fb_StrConcat
add esp, 28
push eax
push -1
push offset Lt_0B66
call fb_StrAssign
add esp, 32
sub esp, 12
push dword ptr [Lt_0B66]
call OUTP
add esp, 16
cmp dword ptr [ebp+16], 0
je .L_02D1
sub esp, 12
push 0
push 10
push offset Lt_02D2
push -1
push offset Lt_0B66
call fb_StrAssign
add esp, 32
sub esp, 12
push 0
push -1
sub esp, 8
push dword ptr [ebp+16]
call fb_IntToStr
add esp, 12
push eax
push -1
push offset Lt_0B66
call fb_StrConcatAssign
add esp, 32
sub esp, 12
push dword ptr [Lt_0B66]
call OUTP
add esp, 16
.L_02D1:
.L_02D0:
.L_02CD:
mov esp, ebp
pop ebp
.cfi_restore 5
.cfi_def_cfa 4, 4
ret
.size _EMITCALL, .-_EMITCALL
.cfi_endproc

.section .bss
.balign 4
	.lcomm	Lt_0B66,12

.section .text
.balign 16
_EMITCALLPTR:
.type _EMITCALLPTR, @function
.cfi_startproc
push ebp
.cfi_def_cfa_offset 8
.cfi_offset 5, -8
mov ebp, esp
.cfi_def_cfa_register 5
sub esp, 8
.L_02D3:
sub esp, 8
push -1
push 0
push 0
push -2147483648
push offset Lt_0B67
push dword ptr [ebp+8]
call HPREPOPERAND
add esp, 32
sub esp, 12
push 0
push 6
push offset Lt_02CE
push -1
push offset Lt_0B68
call fb_StrAssign
add esp, 32
sub esp, 12
push 0
push -1
push offset Lt_0B67
push -1
push offset Lt_0B68
call fb_StrConcatAssign
add esp, 32
sub esp, 12
push dword ptr [Lt_0B68]
call OUTP
add esp, 16
cmp dword ptr [ebp+16], 0
je .L_02D6
sub esp, 12
push 0
push 10
push offset Lt_02D2
push -1
push offset Lt_0B68
call fb_StrAssign
add esp, 32
sub esp, 12
push 0
push -1
sub esp, 8
push dword ptr [ebp+16]
call fb_IntToStr
add esp, 12
push eax
push -1
push offset Lt_0B68
call fb_StrConcatAssign
add esp, 32
sub esp, 12
push dword ptr [Lt_0B68]
call OUTP
add esp, 16
.L_02D6:
.L_02D5:
.L_02D4:
mov esp, ebp
pop ebp
.cfi_restore 5
.cfi_def_cfa 4, 4
ret
.size _EMITCALLPTR, .-_EMITCALLPTR
.cfi_endproc

.section .bss
.balign 4
	.lcomm	Lt_0B67,12
.balign 4
	.lcomm	Lt_0B68,12

.section .text
.balign 16
_EMITBRANCH:
.type _EMITBRANCH, @function
.cfi_startproc
push ebp
.cfi_def_cfa_offset 8
.cfi_offset 5, -8
mov ebp, esp
.cfi_def_cfa_register 5
sub esp, 24
.L_02D7:
mov eax, dword ptr [ebp+16]
mov dword ptr [ebp-16], eax
jmp .L_02DA
.L_02DC:
sub esp, 12
push 0
push 5
push offset Lt_02DD
push -1
push offset Lt_0B69
call fb_StrAssign
add esp, 32
jmp .L_02D9
.L_02DE:
sub esp, 12
push 0
push 5
push offset Lt_02DF
push -1
push offset Lt_0B69
call fb_StrAssign
add esp, 32
jmp .L_02D9
.L_02E0:
sub esp, 12
push 0
push 4
push offset Lt_02E1
push -1
push offset Lt_0B69
call fb_StrAssign
add esp, 32
jmp .L_02D9
.L_02E2:
sub esp, 12
push 0
push 4
push offset Lt_02E3
push -1
push offset Lt_0B69
call fb_StrAssign
add esp, 32
jmp .L_02D9
.L_02E4:
sub esp, 12
push 0
push 4
push offset Lt_02E5
push -1
push offset Lt_0B69
call fb_StrAssign
add esp, 32
jmp .L_02D9
.L_02E6:
sub esp, 12
push 0
push 5
push offset Lt_02E7
push -1
push offset Lt_0B69
call fb_StrAssign
add esp, 32
jmp .L_02D9
.L_02DA:
mov eax, dword ptr [ebp-16]
add eax, 4294967204
cmp eax, 5
ja .L_02D9
mov eax, dword ptr [ebp-16]
jmp dword ptr [.L_02E8+eax*4-368]
.L_02E8:
.int .L_02E4
.int .L_02E2
.int .L_02E0
.int .L_02E6
.int .L_02DE
.int .L_02DC
.L_02D9:
sub esp, 12
push 0
push -1
sub esp, 8
push 0
sub esp, 12
push dword ptr [ebp+12]
call SYMBGETMANGLEDNAME
add esp, 16
push eax
push -1
push offset Lt_0B69
mov dword ptr [ebp-12], 0
mov dword ptr [ebp-8], 0
mov dword ptr [ebp-4], 0
lea eax, [ebp-12]
push eax
call fb_StrConcat
add esp, 28
push eax
push -1
push offset Lt_0B69
call fb_StrAssign
add esp, 32
sub esp, 12
push dword ptr [Lt_0B69]
call OUTP
add esp, 16
.L_02D8:
mov esp, ebp
pop ebp
.cfi_restore 5
.cfi_def_cfa 4, 4
ret
.size _EMITBRANCH, .-_EMITBRANCH
.cfi_endproc

.section .bss
.balign 4
	.lcomm	Lt_0B69,12

.section .text
.balign 16
_EMITJUMP:
.type _EMITJUMP, @function
.cfi_startproc
push ebp
.cfi_def_cfa_offset 8
.cfi_offset 5, -8
mov ebp, esp
.cfi_def_cfa_register 5
sub esp, 24
.L_02EA:
sub esp, 12
push 0
push 5
push offset Lt_02EC
push -1
push offset Lt_0B6A
call fb_StrAssign
add esp, 32
sub esp, 12
push 0
push -1
sub esp, 8
push 0
sub esp, 12
push dword ptr [ebp+12]
call SYMBGETMANGLEDNAME
add esp, 16
push eax
push -1
push offset Lt_0B6A
mov dword ptr [ebp-12], 0
mov dword ptr [ebp-8], 0
mov dword ptr [ebp-4], 0
lea eax, [ebp-12]
push eax
call fb_StrConcat
add esp, 28
push eax
push -1
push offset Lt_0B6A
call fb_StrAssign
add esp, 32
sub esp, 12
push dword ptr [Lt_0B6A]
call OUTP
add esp, 16
.L_02EB:
mov esp, ebp
pop ebp
.cfi_restore 5
.cfi_def_cfa 4, 4
ret
.size _EMITJUMP, .-_EMITJUMP
.cfi_endproc

.section .bss
.balign 4
	.lcomm	Lt_0B6A,12

.section .text
.balign 16
_EMITJUMPPTR:
.type _EMITJUMPPTR, @function
.cfi_startproc
push ebp
.cfi_def_cfa_offset 8
.cfi_offset 5, -8
mov ebp, esp
.cfi_def_cfa_register 5
sub esp, 8
.L_02EE:
sub esp, 8
push -1
push 0
push 0
push -2147483648
push offset Lt_0B6B
push dword ptr [ebp+8]
call HPREPOPERAND
add esp, 32
sub esp, 12
push 0
push 5
push offset Lt_02EC
push -1
push offset Lt_0B6C
call fb_StrAssign
add esp, 32
sub esp, 12
push 0
push -1
push offset Lt_0B6B
push -1
push offset Lt_0B6C
call fb_StrConcatAssign
add esp, 32
sub esp, 12
push dword ptr [Lt_0B6C]
call OUTP
add esp, 16
.L_02EF:
mov esp, ebp
pop ebp
.cfi_restore 5
.cfi_def_cfa 4, 4
ret
.size _EMITJUMPPTR, .-_EMITJUMPPTR
.cfi_endproc

.section .bss
.balign 4
	.lcomm	Lt_0B6B,12
.balign 4
	.lcomm	Lt_0B6C,12

.section .text
.balign 16
_EMITRET:
.type _EMITRET, @function
.cfi_startproc
push ebp
.cfi_def_cfa_offset 8
.cfi_offset 5, -8
mov ebp, esp
.cfi_def_cfa_register 5
sub esp, 24
.L_02F0:
sub esp, 12
push 0
push -1
sub esp, 8
push -1
sub esp, 8
mov eax, dword ptr [ebp+8]
push dword ptr [eax+28]
push dword ptr [eax+24]
call fb_LongintToStr
add esp, 16
push eax
push 5
push offset Lt_02AD
mov dword ptr [ebp-12], 0
mov dword ptr [ebp-8], 0
mov dword ptr [ebp-4], 0
lea eax, [ebp-12]
push eax
call fb_StrConcat
add esp, 28
push eax
push -1
push offset Lt_0B6D
call fb_StrAssign
add esp, 32
sub esp, 12
push dword ptr [Lt_0B6D]
call OUTP
add esp, 16
.L_02F1:
mov esp, ebp
pop ebp
.cfi_restore 5
.cfi_def_cfa 4, 4
ret
.size _EMITRET, .-_EMITRET
.cfi_endproc

.section .bss
.balign 4
	.lcomm	Lt_0B6D,12

.section .text
.balign 16
_EMITPUBLIC:
.type _EMITPUBLIC, @function
.cfi_startproc
push ebp
.cfi_def_cfa_offset 8
.cfi_offset 5, -8
mov ebp, esp
.cfi_def_cfa_register 5
sub esp, 24
.L_02F3:
sub esp, 12
push 0
push 9
push offset Lt_018E
push -1
push offset Lt_0B6E
call fb_StrAssign
add esp, 32
sub esp, 12
push 0
push -1
sub esp, 8
push 0
sub esp, 12
push dword ptr [ebp+8]
call SYMBGETMANGLEDNAME
add esp, 16
push eax
push -1
push offset Lt_0B6E
mov dword ptr [ebp-12], 0
mov dword ptr [ebp-8], 0
mov dword ptr [ebp-4], 0
lea eax, [ebp-12]
push eax
call fb_StrConcat
add esp, 28
push eax
push -1
push offset Lt_0B6E
call fb_StrAssign
add esp, 32
sub esp, 12
push 0
push 2
push offset Lt_016A
push -1
push offset Lt_0B6E
call fb_StrConcatAssign
add esp, 32
sub esp, 8
push 0
push dword ptr [Lt_0B6E]
call OUTEX
add esp, 16
.L_02F4:
mov esp, ebp
pop ebp
.cfi_restore 5
.cfi_def_cfa 4, 4
ret
.size _EMITPUBLIC, .-_EMITPUBLIC
.cfi_endproc

.section .bss
.balign 4
	.lcomm	Lt_0B6E,12

.section .text
.balign 16
_EMITLABEL:
.type _EMITLABEL, @function
.cfi_startproc
push ebp
.cfi_def_cfa_offset 8
.cfi_offset 5, -8
mov ebp, esp
.cfi_def_cfa_register 5
sub esp, 8
.L_02F6:
sub esp, 12
push 0
push 0
sub esp, 8
push dword ptr [ebp+8]
call SYMBGETMANGLEDNAME
add esp, 12
push eax
push -1
push offset Lt_0B6F
call fb_StrAssign
add esp, 32
sub esp, 12
push 0
push 3
push offset Lt_0193
push -1
push offset Lt_0B6F
call fb_StrConcatAssign
add esp, 32
sub esp, 8
push 0
push dword ptr [Lt_0B6F]
call OUTEX
add esp, 16
.L_02F7:
mov esp, ebp
pop ebp
.cfi_restore 5
.cfi_def_cfa 4, 4
ret
.size _EMITLABEL, .-_EMITLABEL
.cfi_endproc

.section .bss
.balign 4
	.lcomm	Lt_0B6F,12

.section .text
.balign 16
_EMITNOP:
.type _EMITNOP, @function
.cfi_startproc
push ebp
.cfi_def_cfa_offset 8
.cfi_offset 5, -8
mov ebp, esp
.cfi_def_cfa_register 5
sub esp, 8
.L_02F8:
.L_02F9:
mov esp, ebp
pop ebp
.cfi_restore 5
.cfi_def_cfa 4, 4
ret
.size _EMITNOP, .-_EMITNOP
.cfi_endproc
.balign 16
HULONG2DBL:
.type HULONG2DBL, @function
.cfi_startproc
push ebp
.cfi_def_cfa_offset 8
.cfi_offset 5, -8
mov ebp, esp
.cfi_def_cfa_register 5
sub esp, 8
.L_02FA:
sub esp, 12
push 0
push 0
sub esp, 12
call SYMBUNIQUELABEL
add esp, 12
push eax
push -1
push offset Lt_0B70
call fb_StrAssign
add esp, 32
sub esp, 8
push -1
push -1
push 0
push 8
push offset Lt_0B71
push dword ptr [ebp+8]
call HPREPOPERAND
add esp, 32
sub esp, 12
push 0
push 5
push offset Lt_02FC
push -1
push offset Lt_0B72
call fb_StrAssign
add esp, 32
sub esp, 12
push 0
push -1
push offset Lt_0B71
push -1
push offset Lt_0B72
call fb_StrConcatAssign
add esp, 32
sub esp, 12
push 0
push 4
push offset Lt_02FD
push -1
push offset Lt_0B72
call fb_StrConcatAssign
add esp, 32
sub esp, 12
push dword ptr [Lt_0B72]
call OUTP
add esp, 16
sub esp, 12
push 0
push 5
push offset Lt_02FE
push -1
push offset Lt_0B72
call fb_StrAssign
add esp, 32
sub esp, 12
push 0
push -1
push offset Lt_0B70
push -1
push offset Lt_0B72
call fb_StrConcatAssign
add esp, 32
sub esp, 12
push dword ptr [Lt_0B72]
call OUTP
add esp, 16
sub esp, 12
push offset Lt_02FF
call HPUSH
add esp, 16
sub esp, 12
push offset Lt_0300
call HPUSH
add esp, 16
sub esp, 12
push offset Lt_0006
call HPUSH
add esp, 16
sub esp, 12
push offset Lt_0301
call OUTP
add esp, 16
sub esp, 12
push offset Lt_0302
call OUTP
add esp, 16
sub esp, 12
push offset Lt_0303
call OUTP
add esp, 16
sub esp, 12
push dword ptr [Lt_0B70]
call HLABEL
add esp, 16
.L_02FB:
mov esp, ebp
pop ebp
.cfi_restore 5
.cfi_def_cfa 4, 4
ret
.size HULONG2DBL, .-HULONG2DBL
.cfi_endproc

.section .bss
.balign 4
	.lcomm	Lt_0B70,12
.balign 4
	.lcomm	Lt_0B71,12
.balign 4
	.lcomm	Lt_0B72,12

.section .text
.balign 16
_EMITSTORL2L:
.type _EMITSTORL2L, @function
.cfi_startproc
push ebp
.cfi_def_cfa_offset 8
.cfi_offset 5, -8
mov ebp, esp
.cfi_def_cfa_register 5
sub esp, 8
.L_0304:
sub esp, 4
push offset Lt_0B73
push offset Lt_0B74
push dword ptr [ebp+8]
call HPREPOPERAND64
add esp, 16
sub esp, 4
push offset Lt_0B75
push offset Lt_0B76
push dword ptr [ebp+12]
call HPREPOPERAND64
add esp, 16
sub esp, 12
push 0
push 5
push offset Lt_017D
push -1
push offset Lt_0B77
call fb_StrAssign
add esp, 32
sub esp, 12
push 0
push -1
push offset Lt_0B74
push -1
push offset Lt_0B77
call fb_StrConcatAssign
add esp, 32
sub esp, 12
push 0
push 3
push offset Lt_0073
push -1
push offset Lt_0B77
call fb_StrConcatAssign
add esp, 32
sub esp, 12
push 0
push -1
push offset Lt_0B76
push -1
push offset Lt_0B77
call fb_StrConcatAssign
add esp, 32
sub esp, 12
push dword ptr [Lt_0B77]
call OUTP
add esp, 16
sub esp, 12
push 0
push 5
push offset Lt_017D
push -1
push offset Lt_0B77
call fb_StrAssign
add esp, 32
sub esp, 12
push 0
push -1
push offset Lt_0B73
push -1
push offset Lt_0B77
call fb_StrConcatAssign
add esp, 32
sub esp, 12
push 0
push 3
push offset Lt_0073
push -1
push offset Lt_0B77
call fb_StrConcatAssign
add esp, 32
sub esp, 12
push 0
push -1
push offset Lt_0B75
push -1
push offset Lt_0B77
call fb_StrConcatAssign
add esp, 32
sub esp, 12
push dword ptr [Lt_0B77]
call OUTP
add esp, 16
.L_0305:
mov esp, ebp
pop ebp
.cfi_restore 5
.cfi_def_cfa 4, 4
ret
.size _EMITSTORL2L, .-_EMITSTORL2L
.cfi_endproc

.section .bss
.balign 4
	.lcomm	Lt_0B74,12
.balign 4
	.lcomm	Lt_0B73,12
.balign 4
	.lcomm	Lt_0B76,12
.balign 4
	.lcomm	Lt_0B75,12
.balign 4
	.lcomm	Lt_0B77,12

.section .text
.balign 16
_EMITSTORI2L:
.type _EMITSTORI2L, @function
.cfi_startproc
push ebp
.cfi_def_cfa_offset 8
.cfi_offset 5, -8
mov ebp, esp
.cfi_def_cfa_register 5
sub esp, 20
push ebx
.L_0306:
mov eax, dword ptr [ebp+12]
mov ebx, dword ptr [eax+4]
and ebx, 480
je .L_0308
mov dword ptr [ebp-4], 24
jmp .L_0B78
.L_0308:
mov ebx, dword ptr [ebp+12]
mov eax, dword ptr [ebx+4]
and eax, 31
mov dword ptr [ebp-4], eax
.L_0B78:
mov eax, dword ptr [ebp-4]
imul eax, 28
mov ebx, dword ptr [SYMB_DTYPETB+eax+4]
mov dword ptr [Lt_0B7C], ebx
sub esp, 4
push offset Lt_0B7D
push offset Lt_0B7E
push dword ptr [ebp+8]
call HPREPOPERAND64
add esp, 16
sub esp, 8
push -1
push 0
push 0
push -2147483648
push offset Lt_0B7F
push dword ptr [ebp+12]
call HPREPOPERAND
add esp, 32
mov ebx, dword ptr [ebp+12]
cmp dword ptr [ebx], 0
jne .L_030B
sub esp, 8
push dword ptr [Lt_0B7F]
push dword ptr [Lt_0B7E]
call HMOV
add esp, 16
mov ebx, dword ptr [ebp+12]
mov eax, dword ptr [ebx+4]
and eax, 480
je .L_030C
mov dword ptr [ebp-12], 24
jmp .L_0B79
.L_030C:
mov eax, dword ptr [ebp+12]
mov ebx, dword ptr [eax+4]
and ebx, 31
mov dword ptr [ebp-12], ebx
.L_0B79:
mov ebx, dword ptr [ebp-12]
imul ebx, 28
mov eax, dword ptr [ebp+12]
cmp dword ptr [eax+28], 0
mov ecx, -1
jl .L_0B80
jg .L_0B81
cmp dword ptr [eax+24], 0
jb .L_0B80
.L_0B81:
xor ecx, ecx
.L_0B80:
and ecx, dword ptr [SYMB_DTYPETB+ebx+8]
je .L_030F
sub esp, 8
push offset Lt_0310
push dword ptr [Lt_0B7D]
call HMOV
add esp, 16
jmp .L_030E
.L_030F:
sub esp, 8
push offset Lt_0006
push dword ptr [Lt_0B7D]
call HMOV
add esp, 16
.L_030E:
jmp .L_0307
.L_030B:
.L_030A:
cmp dword ptr [Lt_0B7C], 4
jge .L_0312
sub esp, 12
push 0
push 0
sub esp, 4
mov ebx, dword ptr [ebp+12]
push dword ptr [ebx+12]
push 8
call HGETREGNAME
add esp, 12
push eax
push -1
push offset Lt_0B82
call fb_StrAssign
add esp, 32
mov eax, dword ptr [ebp+12]
mov ebx, dword ptr [eax+4]
and ebx, 480
je .L_0313
mov dword ptr [ebp-12], 24
jmp .L_0B7A
.L_0313:
mov ebx, dword ptr [ebp+12]
mov eax, dword ptr [ebx+4]
and eax, 31
mov dword ptr [ebp-12], eax
.L_0B7A:
mov eax, dword ptr [ebp-12]
imul eax, 28
cmp dword ptr [SYMB_DTYPETB+eax+8], 0
je .L_0316
sub esp, 12
push 0
push 7
push offset Lt_0317
push -1
push offset Lt_0B83
call fb_StrAssign
add esp, 32
jmp .L_0315
.L_0316:
sub esp, 12
push 0
push 7
push offset Lt_0318
push -1
push offset Lt_0B83
call fb_StrAssign
add esp, 32
.L_0315:
sub esp, 12
push 0
push -1
push offset Lt_0B82
push -1
push offset Lt_0B83
call fb_StrConcatAssign
add esp, 32
sub esp, 12
push 0
push 3
push offset Lt_0073
push -1
push offset Lt_0B83
call fb_StrConcatAssign
add esp, 32
sub esp, 12
push 0
push -1
push offset Lt_0B7F
push -1
push offset Lt_0B83
call fb_StrConcatAssign
add esp, 32
sub esp, 12
push dword ptr [Lt_0B83]
call OUTP
add esp, 16
jmp .L_0311
.L_0312:
sub esp, 12
push 0
push -1
push offset Lt_0B7F
push -1
push offset Lt_0B82
call fb_StrAssign
add esp, 32
.L_0311:
sub esp, 12
push 0
push 5
push offset Lt_017D
push -1
push offset Lt_0B83
call fb_StrAssign
add esp, 32
sub esp, 12
push 0
push -1
push offset Lt_0B7E
push -1
push offset Lt_0B83
call fb_StrConcatAssign
add esp, 32
sub esp, 12
push 0
push 3
push offset Lt_0073
push -1
push offset Lt_0B83
call fb_StrConcatAssign
add esp, 32
sub esp, 12
push 0
push -1
push offset Lt_0B82
push -1
push offset Lt_0B83
call fb_StrConcatAssign
add esp, 32
sub esp, 12
push dword ptr [Lt_0B83]
call OUTP
add esp, 16
mov eax, dword ptr [ebp+12]
mov ebx, dword ptr [eax+4]
and ebx, 480
je .L_0319
mov dword ptr [ebp-8], 24
jmp .L_0B7B
.L_0319:
mov ebx, dword ptr [ebp+12]
mov eax, dword ptr [ebx+4]
and eax, 31
mov dword ptr [ebp-8], eax
.L_0B7B:
mov eax, dword ptr [ebp-8]
imul eax, 28
cmp dword ptr [SYMB_DTYPETB+eax+8], 0
je .L_031C
sub esp, 12
push dword ptr [Lt_0B82]
call HPUSH
add esp, 16
sub esp, 12
push 0
push 5
push offset Lt_031D
push -1
push offset Lt_0B83
call fb_StrAssign
add esp, 32
sub esp, 12
push 0
push -1
push offset Lt_0B82
push -1
push offset Lt_0B83
call fb_StrConcatAssign
add esp, 32
sub esp, 12
push 0
push 5
push offset Lt_031E
push -1
push offset Lt_0B83
call fb_StrConcatAssign
add esp, 32
sub esp, 12
push dword ptr [Lt_0B83]
call OUTP
add esp, 16
sub esp, 12
push 0
push 5
push offset Lt_017D
push -1
push offset Lt_0B83
call fb_StrAssign
add esp, 32
sub esp, 12
push 0
push -1
push offset Lt_0B7D
push -1
push offset Lt_0B83
call fb_StrConcatAssign
add esp, 32
sub esp, 12
push 0
push 3
push offset Lt_0073
push -1
push offset Lt_0B83
call fb_StrConcatAssign
add esp, 32
sub esp, 12
push 0
push -1
push offset Lt_0B82
push -1
push offset Lt_0B83
call fb_StrConcatAssign
add esp, 32
sub esp, 12
push dword ptr [Lt_0B83]
call OUTP
add esp, 16
sub esp, 12
push dword ptr [Lt_0B82]
call HPOP
add esp, 16
jmp .L_031B
.L_031C:
sub esp, 12
push 0
push 5
push offset Lt_017D
push -1
push offset Lt_0B83
call fb_StrAssign
add esp, 32
sub esp, 12
push 0
push -1
push offset Lt_0B7D
push -1
push offset Lt_0B83
call fb_StrConcatAssign
add esp, 32
sub esp, 12
push 0
push 4
push offset Lt_02FD
push -1
push offset Lt_0B83
call fb_StrConcatAssign
add esp, 32
sub esp, 12
push dword ptr [Lt_0B83]
call OUTP
add esp, 16
.L_031B:
.L_0307:
pop ebx
mov esp, ebp
pop ebp
.cfi_restore 5
.cfi_def_cfa 4, 4
ret
.size _EMITSTORI2L, .-_EMITSTORI2L
.cfi_endproc

.section .bss
.balign 4
	.lcomm	Lt_0B7E,12
.balign 4
	.lcomm	Lt_0B7D,12
.balign 4
	.lcomm	Lt_0B7F,12
.balign 4
	.lcomm	Lt_0B82,12
.balign 4
	.lcomm	Lt_0B83,12
.balign 4
	.lcomm	Lt_0B7C,4

.section .text
.balign 16
_EMITSTORF2L:
.type _EMITSTORF2L, @function
.cfi_startproc
push ebp
.cfi_def_cfa_offset 8
.cfi_offset 5, -8
mov ebp, esp
.cfi_def_cfa_register 5
sub esp, 4
push ebx
.L_031F:
sub esp, 8
push -1
push 0
push 0
push -2147483648
push offset Lt_0B85
push dword ptr [ebp+8]
call HPREPOPERAND
add esp, 32
mov eax, dword ptr [ebp+8]
mov ebx, dword ptr [eax+4]
and ebx, 480
je .L_0321
mov dword ptr [ebp-4], 24
jmp .L_0B84
.L_0321:
mov ebx, dword ptr [ebp+8]
mov eax, dword ptr [ebx+4]
and eax, 31
mov dword ptr [ebp-4], eax
.L_0B84:
mov eax, dword ptr [ebp-4]
imul eax, 28
cmp dword ptr [SYMB_DTYPETB+eax+8], 0
je .L_0324
sub esp, 12
push 0
push 7
push offset Lt_0325
push -1
push offset Lt_0B86
call fb_StrAssign
add esp, 32
sub esp, 12
push 0
push -1
push offset Lt_0B85
push -1
push offset Lt_0B86
call fb_StrConcatAssign
add esp, 32
sub esp, 12
push dword ptr [Lt_0B86]
call OUTP
add esp, 16
.L_0324:
.L_0323:
.L_0320:
pop ebx
mov esp, ebp
pop ebp
.cfi_restore 5
.cfi_def_cfa 4, 4
ret
.size _EMITSTORF2L, .-_EMITSTORF2L
.cfi_endproc

.section .bss
.balign 4
	.lcomm	Lt_0B85,12
.balign 4
	.lcomm	Lt_0B86,12

.section .text
.balign 16
_EMITSTORI2I:
.type _EMITSTORI2I, @function
.cfi_startproc
push ebp
.cfi_def_cfa_offset 8
.cfi_offset 5, -8
mov ebp, esp
.cfi_def_cfa_register 5
sub esp, 20
push ebx
.L_0326:
sub esp, 8
push -1
push 0
push 0
push -2147483648
push offset Lt_0B8A
push dword ptr [ebp+8]
call HPREPOPERAND
add esp, 32
sub esp, 8
push -1
push 0
push 0
push -2147483648
push offset Lt_0B8B
push dword ptr [ebp+12]
call HPREPOPERAND
add esp, 32
mov eax, dword ptr [ebp+8]
mov ebx, dword ptr [eax+4]
and ebx, 480
je .L_0328
mov dword ptr [ebp-4], 24
jmp .L_0B87
.L_0328:
mov ebx, dword ptr [ebp+8]
mov eax, dword ptr [ebx+4]
and eax, 31
mov dword ptr [ebp-4], eax
.L_0B87:
mov eax, dword ptr [ebp-4]
imul eax, 28
mov ebx, dword ptr [SYMB_DTYPETB+eax+4]
mov dword ptr [Lt_0B8C], ebx
mov ebx, dword ptr [ebp+12]
mov eax, dword ptr [ebx+4]
and eax, 480
je .L_032A
mov dword ptr [ebp-8], 24
jmp .L_0B88
.L_032A:
mov eax, dword ptr [ebp+12]
mov ebx, dword ptr [eax+4]
and ebx, 31
mov dword ptr [ebp-8], ebx
.L_0B88:
mov ebx, dword ptr [ebp-8]
imul ebx, 28
mov eax, dword ptr [SYMB_DTYPETB+ebx+4]
mov dword ptr [Lt_0B8D], eax
cmp dword ptr [Lt_0B8C], 1
jne .L_032D
mov eax, dword ptr [ebp+12]
cmp dword ptr [eax], 0
jne .L_032F
mov dword ptr [Lt_0B8C], 4
.L_032F:
.L_032E:
.L_032D:
.L_032C:
mov eax, dword ptr [ebp+12]
mov ebx, dword ptr [eax]
test ebx, ebx
sete bl
shr ebx, 1
sbb ebx, ebx
mov eax, dword ptr [Lt_0B8D]
cmp eax, dword ptr [Lt_0B8C]
sete al
shr eax, 1
sbb eax, eax
or ebx, eax
je .L_0331
sub esp, 12
push 0
push 5
push offset Lt_017D
push -1
push offset Lt_0B90
call fb_StrAssign
add esp, 32
sub esp, 12
push 0
push -1
push offset Lt_0B8A
push -1
push offset Lt_0B90
call fb_StrConcatAssign
add esp, 32
sub esp, 12
push 0
push 3
push offset Lt_0073
push -1
push offset Lt_0B90
call fb_StrConcatAssign
add esp, 32
sub esp, 12
push 0
push -1
push offset Lt_0B8B
push -1
push offset Lt_0B90
call fb_StrConcatAssign
add esp, 32
sub esp, 12
push dword ptr [Lt_0B90]
call OUTP
add esp, 16
jmp .L_0330
.L_0331:
sub esp, 12
push 0
push 0
sub esp, 4
mov eax, dword ptr [ebp+12]
push dword ptr [eax+12]
mov eax, dword ptr [ebp+8]
push dword ptr [eax+4]
call HGETREGNAME
add esp, 12
push eax
push -1
push offset Lt_0B91
call fb_StrAssign
add esp, 32
mov eax, dword ptr [Lt_0B8D]
cmp dword ptr [Lt_0B8C], eax
jle .L_0333
mov eax, dword ptr [ebp+12]
mov ebx, dword ptr [eax+4]
and ebx, 480
je .L_0334
mov dword ptr [ebp-12], 24
jmp .L_0B89
.L_0334:
mov ebx, dword ptr [ebp+12]
mov eax, dword ptr [ebx+4]
and eax, 31
mov dword ptr [ebp-12], eax
.L_0B89:
mov eax, dword ptr [ebp-12]
imul eax, 28
cmp dword ptr [SYMB_DTYPETB+eax+8], 0
je .L_0337
sub esp, 12
push 0
push 7
push offset Lt_0317
push -1
push offset Lt_0B90
call fb_StrAssign
add esp, 32
jmp .L_0336
.L_0337:
sub esp, 12
push 0
push 7
push offset Lt_0318
push -1
push offset Lt_0B90
call fb_StrAssign
add esp, 32
.L_0336:
sub esp, 12
push 0
push -1
push offset Lt_0B91
push -1
push offset Lt_0B90
call fb_StrConcatAssign
add esp, 32
sub esp, 12
push 0
push 3
push offset Lt_0073
push -1
push offset Lt_0B90
call fb_StrConcatAssign
add esp, 32
sub esp, 12
push 0
push -1
push offset Lt_0B8B
push -1
push offset Lt_0B90
call fb_StrConcatAssign
add esp, 32
sub esp, 12
push dword ptr [Lt_0B90]
call OUTP
add esp, 16
sub esp, 12
push 0
push 5
push offset Lt_017D
push -1
push offset Lt_0B90
call fb_StrAssign
add esp, 32
sub esp, 12
push 0
push -1
push offset Lt_0B8A
push -1
push offset Lt_0B90
call fb_StrConcatAssign
add esp, 32
sub esp, 12
push 0
push 3
push offset Lt_0073
push -1
push offset Lt_0B90
call fb_StrConcatAssign
add esp, 32
sub esp, 12
push 0
push -1
push offset Lt_0B91
push -1
push offset Lt_0B90
call fb_StrConcatAssign
add esp, 32
sub esp, 12
push dword ptr [Lt_0B90]
call OUTP
add esp, 16
jmp .L_0332
.L_0333:
mov dword ptr [Lt_0B92], 0
cmp dword ptr [Lt_0B8C], 1
jne .L_0339
mov eax, dword ptr [ebp+12]
cmp dword ptr [eax], 4
jne .L_033B
mov eax, dword ptr [ebp+12]
mov ebx, dword ptr [eax+12]
cmp ebx, 2
sete bl
shr ebx, 1
sbb ebx, ebx
mov eax, dword ptr [ebp+12]
mov ecx, dword ptr [eax+12]
cmp ecx, 1
sete cl
shr ecx, 1
sbb ecx, ecx
or ebx, ecx
mov dword ptr [Lt_0B92], ebx
.L_033B:
.L_033A:
.L_0339:
.L_0338:
cmp dword ptr [Lt_0B92], 0
je .L_033D
sub esp, 8
push -1
push dword ptr [ebp+8]
call HFINDREGNOTINVREG
add esp, 16
mov dword ptr [Lt_0B95], eax
sub esp, 12
push 0
push 0
sub esp, 4
push dword ptr [Lt_0B95]
push 2
call HGETREGNAME
add esp, 12
push eax
push -1
push offset Lt_0B96
call fb_StrAssign
add esp, 32
sub esp, 12
push 0
push 0
sub esp, 4
push dword ptr [Lt_0B95]
mov eax, dword ptr [ebp+12]
push dword ptr [eax+4]
call HGETREGNAME
add esp, 12
push eax
push -1
push offset Lt_0B91
call fb_StrAssign
add esp, 32
sub esp, 8
push dword ptr [Lt_0B95]
push 0
call HISREGFREE
add esp, 16
mov dword ptr [Lt_0B97], eax
cmp dword ptr [Lt_0B97], 0
jne .L_033F
sub esp, 12
push dword ptr [Lt_0B91]
call HPUSH
add esp, 16
.L_033F:
.L_033E:
sub esp, 12
push 0
push 5
push offset Lt_017D
push -1
push offset Lt_0B90
call fb_StrAssign
add esp, 32
sub esp, 12
push 0
push -1
push offset Lt_0B91
push -1
push offset Lt_0B90
call fb_StrConcatAssign
add esp, 32
sub esp, 12
push 0
push 3
push offset Lt_0073
push -1
push offset Lt_0B90
call fb_StrConcatAssign
add esp, 32
sub esp, 12
push 0
push -1
push offset Lt_0B8B
push -1
push offset Lt_0B90
call fb_StrConcatAssign
add esp, 32
sub esp, 12
push dword ptr [Lt_0B90]
call OUTP
add esp, 16
sub esp, 12
push 0
push 5
push offset Lt_017D
push -1
push offset Lt_0B90
call fb_StrAssign
add esp, 32
sub esp, 12
push 0
push -1
push offset Lt_0B8A
push -1
push offset Lt_0B90
call fb_StrConcatAssign
add esp, 32
sub esp, 12
push 0
push 3
push offset Lt_0073
push -1
push offset Lt_0B90
call fb_StrConcatAssign
add esp, 32
sub esp, 12
push 0
push -1
push offset Lt_0B96
push -1
push offset Lt_0B90
call fb_StrConcatAssign
add esp, 32
sub esp, 12
push dword ptr [Lt_0B90]
call OUTP
add esp, 16
cmp dword ptr [Lt_0B97], 0
jne .L_0341
sub esp, 12
push dword ptr [Lt_0B91]
call HPOP
add esp, 16
.L_0341:
.L_0340:
jmp .L_033C
.L_033D:
sub esp, 12
push 0
push 5
push offset Lt_017D
push -1
push offset Lt_0B90
call fb_StrAssign
add esp, 32
sub esp, 12
push 0
push -1
push offset Lt_0B8A
push -1
push offset Lt_0B90
call fb_StrConcatAssign
add esp, 32
sub esp, 12
push 0
push 3
push offset Lt_0073
push -1
push offset Lt_0B90
call fb_StrConcatAssign
add esp, 32
sub esp, 12
push 0
push -1
push offset Lt_0B91
push -1
push offset Lt_0B90
call fb_StrConcatAssign
add esp, 32
sub esp, 12
push dword ptr [Lt_0B90]
call OUTP
add esp, 16
.L_033C:
.L_0332:
.L_0330:
.L_0327:
pop ebx
mov esp, ebp
pop ebp
.cfi_restore 5
.cfi_def_cfa 4, 4
ret
.size _EMITSTORI2I, .-_EMITSTORI2I
.cfi_endproc

.section .bss
.balign 4
	.lcomm	Lt_0B8A,12
.balign 4
	.lcomm	Lt_0B8B,12
.balign 4
	.lcomm	Lt_0B8C,4
.balign 4
	.lcomm	Lt_0B8D,4
.balign 4
	.lcomm	Lt_0B90,12
.balign 4
	.lcomm	Lt_0B91,12
.balign 4
	.lcomm	Lt_0B92,4
.balign 4
	.lcomm	Lt_0B96,12
.balign 4
	.lcomm	Lt_0B95,4
.balign 4
	.lcomm	Lt_0B97,4

.section .text
.balign 16
_EMITSTORL2I:
.type _EMITSTORL2I, @function
.cfi_startproc
push ebp
.cfi_def_cfa_offset 8
.cfi_offset 5, -8
mov ebp, esp
.cfi_def_cfa_register 5
sub esp, 8
.L_0342:
sub esp, 8
push dword ptr [ebp+12]
push dword ptr [ebp+8]
call _EMITSTORI2I
add esp, 16
.L_0343:
mov esp, ebp
pop ebp
.cfi_restore 5
.cfi_def_cfa 4, 4
ret
.size _EMITSTORL2I, .-_EMITSTORL2I
.cfi_endproc
.balign 16
_EMITSTORF2I:
.type _EMITSTORF2I, @function
.cfi_startproc
push ebp
.cfi_def_cfa_offset 8
.cfi_offset 5, -8
mov ebp, esp
.cfi_def_cfa_register 5
sub esp, 20
push ebx
.L_0344:
sub esp, 8
push -1
push 0
push 0
push -2147483648
push offset Lt_0B9A
push dword ptr [ebp+8]
call HPREPOPERAND
add esp, 32
sub esp, 8
push -1
push 0
push 0
push -2147483648
push offset Lt_0B9B
push dword ptr [ebp+12]
call HPREPOPERAND
add esp, 32
mov eax, dword ptr [ebp+8]
mov ebx, dword ptr [eax+4]
and ebx, 480
je .L_0346
mov dword ptr [ebp-4], 24
jmp .L_0B98
.L_0346:
mov ebx, dword ptr [ebp+8]
mov eax, dword ptr [ebx+4]
and eax, 31
mov dword ptr [ebp-4], eax
.L_0B98:
mov eax, dword ptr [ebp-4]
imul eax, 28
mov ebx, dword ptr [SYMB_DTYPETB+eax+4]
mov dword ptr [Lt_0B9C], ebx
cmp dword ptr [Lt_0B9C], 1
jne .L_0349
sub esp, 12
push offset Lt_034A
call OUTP
add esp, 16
sub esp, 12
push offset Lt_034B
call OUTP
add esp, 16
mov ebx, dword ptr [ebp+8]
cmp dword ptr [ebx], 4
jne .L_034D
sub esp, 8
push offset Lt_034E
push dword ptr [Lt_0B9A]
call HMOV
add esp, 16
sub esp, 12
push offset Lt_034F
call OUTP
add esp, 16
jmp .L_034C
.L_034D:
sub esp, 8
push -1
push dword ptr [ebp+8]
call HFINDREGNOTINVREG
add esp, 16
mov dword ptr [Lt_0B9D], eax
sub esp, 12
push 0
push 0
sub esp, 4
push dword ptr [Lt_0B9D]
push 2
call HGETREGNAME
add esp, 12
push eax
push -1
push offset Lt_0B9E
call fb_StrAssign
add esp, 32
sub esp, 12
push 0
push 0
sub esp, 4
push dword ptr [Lt_0B9D]
push 8
call HGETREGNAME
add esp, 12
push eax
push -1
push offset Lt_0B9F
call fb_StrAssign
add esp, 32
sub esp, 8
push dword ptr [Lt_0B9D]
push 0
call HISREGFREE
add esp, 16
mov dword ptr [Lt_0BA0], eax
cmp dword ptr [Lt_0BA0], 0
jne .L_0351
sub esp, 8
push offset Lt_0352
push dword ptr [Lt_0B9F]
call HXCHG
add esp, 16
jmp .L_0350
.L_0351:
sub esp, 8
push offset Lt_034E
push dword ptr [Lt_0B9E]
call HMOV
add esp, 16
.L_0350:
sub esp, 8
push dword ptr [Lt_0B9E]
push dword ptr [Lt_0B9A]
call HMOV
add esp, 16
cmp dword ptr [Lt_0BA0], 0
jne .L_0354
sub esp, 12
push dword ptr [Lt_0B9F]
call HPOP
add esp, 16
jmp .L_0353
.L_0354:
sub esp, 12
push offset Lt_034F
call OUTP
add esp, 16
.L_0353:
.L_034C:
jmp .L_0348
.L_0349:
mov eax, dword ptr [ebp+8]
mov ebx, dword ptr [eax+4]
and ebx, 480
je .L_0355
mov dword ptr [ebp-8], 24
jmp .L_0B99
.L_0355:
mov ebx, dword ptr [ebp+8]
mov eax, dword ptr [ebx+4]
and eax, 31
mov dword ptr [ebp-8], eax
.L_0B99:
mov eax, dword ptr [ebp-8]
imul eax, 28
cmp dword ptr [SYMB_DTYPETB+eax+8], 0
je .L_0358
sub esp, 12
push 0
push 7
push offset Lt_0325
push -1
push offset Lt_0BA1
call fb_StrAssign
add esp, 32
sub esp, 12
push 0
push -1
push offset Lt_0B9A
push -1
push offset Lt_0BA1
call fb_StrConcatAssign
add esp, 32
sub esp, 12
push dword ptr [Lt_0BA1]
call OUTP
add esp, 16
jmp .L_0357
.L_0358:
cmp dword ptr [Lt_0B9C], 4
jne .L_035A
sub esp, 12
push offset Lt_035B
call OUTP
add esp, 16
sub esp, 12
push offset Lt_035C
call OUTP
add esp, 16
sub esp, 12
push dword ptr [Lt_0B9A]
call HPOP
add esp, 16
sub esp, 12
push offset Lt_034F
call OUTP
add esp, 16
jmp .L_0359
.L_035A:
sub esp, 12
push offset Lt_034A
call OUTP
add esp, 16
sub esp, 12
push offset Lt_034B
call OUTP
add esp, 16
sub esp, 12
push dword ptr [Lt_0B9A]
call HPOP
add esp, 16
sub esp, 12
push offset Lt_035D
call OUTP
add esp, 16
.L_0359:
.L_0357:
.L_0348:
.L_0345:
pop ebx
mov esp, ebp
pop ebp
.cfi_restore 5
.cfi_def_cfa 4, 4
ret
.size _EMITSTORF2I, .-_EMITSTORF2I
.cfi_endproc

.section .bss
.balign 4
	.lcomm	Lt_0B9A,12
.balign 4
	.lcomm	Lt_0B9B,12
.balign 4
	.lcomm	Lt_0B9C,4
.balign 4
	.lcomm	Lt_0BA1,12
.balign 4
	.lcomm	Lt_0B9D,4
.balign 4
	.lcomm	Lt_0BA0,4
.balign 4
	.lcomm	Lt_0B9F,12
.balign 4
	.lcomm	Lt_0B9E,12

.section .text
.balign 16
_EMITSTORL2F:
.type _EMITSTORL2F, @function
.cfi_startproc
push ebp
.cfi_def_cfa_offset 8
.cfi_offset 5, -8
mov ebp, esp
.cfi_def_cfa_register 5
sub esp, 36
push ebx
.L_035E:
sub esp, 8
push -1
push 0
push 0
push -2147483648
push offset Lt_0BA4
push dword ptr [ebp+8]
call HPREPOPERAND
add esp, 32
sub esp, 8
push -1
push 0
push 0
push -2147483648
push offset Lt_0BA5
push dword ptr [ebp+12]
call HPREPOPERAND
add esp, 32
mov eax, dword ptr [ebp+12]
mov ebx, dword ptr [eax]
cmp ebx, 4
sete bl
shr ebx, 1
sbb ebx, ebx
mov eax, dword ptr [ebp+12]
mov ecx, dword ptr [eax]
test ecx, ecx
sete cl
shr ecx, 1
sbb ecx, ecx
or ebx, ecx
je .L_0361
mov ecx, dword ptr [ebp+12]
mov ebx, dword ptr [ecx+4]
and ebx, 480
je .L_0362
mov dword ptr [ebp-4], 24
jmp .L_0BA2
.L_0362:
mov ebx, dword ptr [ebp+12]
mov ecx, dword ptr [ebx+4]
and ecx, 31
mov dword ptr [ebp-4], ecx
.L_0BA2:
mov ecx, dword ptr [ebp-4]
imul ecx, 28
cmp dword ptr [SYMB_DTYPETB+ecx+8], 0
je .L_0365
sub esp, 4
push offset Lt_0BA8
push offset Lt_0BA5
push dword ptr [ebp+12]
call HPREPOPERAND64
add esp, 16
sub esp, 12
push dword ptr [Lt_0BA8]
call HPUSH
add esp, 16
sub esp, 12
push dword ptr [Lt_0BA5]
call HPUSH
add esp, 16
sub esp, 12
push 0
push -1
sub esp, 8
push 7
push offset Lt_0367
push -1
sub esp, 4
push 12
mov ecx, dword ptr [ebp+12]
mov ebx, dword ptr [ecx+4]
sal ebx, 4
lea ecx, [DTYPETB+ebx+4]
push ecx
push 6
push offset Lt_0366
mov dword ptr [ebp-16], 0
mov dword ptr [ebp-12], 0
mov dword ptr [ebp-8], 0
lea ecx, [ebp-16]
push ecx
call fb_StrConcat
add esp, 24
push eax
mov dword ptr [ebp-28], 0
mov dword ptr [ebp-24], 0
mov dword ptr [ebp-20], 0
lea eax, [ebp-28]
push eax
call fb_StrConcat
add esp, 28
push eax
push -1
push offset Lt_0BA9
call fb_StrAssign
add esp, 32
sub esp, 12
push dword ptr [Lt_0BA9]
call OUTP
add esp, 16
sub esp, 12
push offset Lt_036A
call OUTP
add esp, 16
jmp .L_0364
.L_0365:
sub esp, 4
push offset Lt_0BA8
push offset Lt_0BA5
push dword ptr [ebp+12]
call HPREPOPERAND64
add esp, 16
sub esp, 12
push dword ptr [Lt_0BA8]
call HPUSH
add esp, 16
sub esp, 12
push dword ptr [Lt_0BA5]
call HPUSH
add esp, 16
sub esp, 12
push offset Lt_036B
call OUTP
add esp, 16
sub esp, 12
push offset Lt_036A
call OUTP
add esp, 16
sub esp, 12
push dword ptr [ebp+12]
call HULONG2DBL
add esp, 16
.L_0364:
jmp .L_0360
.L_0361:
mov eax, dword ptr [ebp+12]
mov ecx, dword ptr [eax+4]
and ecx, 480
je .L_036C
mov dword ptr [ebp-4], 24
jmp .L_0BA3
.L_036C:
mov ecx, dword ptr [ebp+12]
mov eax, dword ptr [ecx+4]
and eax, 31
mov dword ptr [ebp-4], eax
.L_0BA3:
mov eax, dword ptr [ebp-4]
imul eax, 28
cmp dword ptr [SYMB_DTYPETB+eax+8], 0
je .L_036F
sub esp, 12
push 0
push 6
push offset Lt_0366
push -1
push offset Lt_0BA9
call fb_StrAssign
add esp, 32
sub esp, 12
push 0
push -1
push offset Lt_0BA5
push -1
push offset Lt_0BA9
call fb_StrConcatAssign
add esp, 32
sub esp, 12
push dword ptr [Lt_0BA9]
call OUTP
add esp, 16
jmp .L_036E
.L_036F:
sub esp, 12
push 0
push 6
push offset Lt_0366
push -1
push offset Lt_0BA9
call fb_StrAssign
add esp, 32
sub esp, 12
push 0
push -1
push offset Lt_0BA5
push -1
push offset Lt_0BA9
call fb_StrConcatAssign
add esp, 32
sub esp, 12
push dword ptr [Lt_0BA9]
call OUTP
add esp, 16
sub esp, 12
push dword ptr [ebp+12]
call HULONG2DBL
add esp, 16
.L_036E:
.L_0360:
sub esp, 12
push 0
push 6
push offset Lt_0370
push -1
push offset Lt_0BA9
call fb_StrAssign
add esp, 32
sub esp, 12
push 0
push -1
push offset Lt_0BA4
push -1
push offset Lt_0BA9
call fb_StrConcatAssign
add esp, 32
sub esp, 12
push dword ptr [Lt_0BA9]
call OUTP
add esp, 16
.L_035F:
pop ebx
mov esp, ebp
pop ebp
.cfi_restore 5
.cfi_def_cfa 4, 4
ret
.size _EMITSTORL2F, .-_EMITSTORL2F
.cfi_endproc

.section .bss
.balign 4
	.lcomm	Lt_0BA4,12
.balign 4
	.lcomm	Lt_0BA5,12
.balign 4
	.lcomm	Lt_0BA8,12
.balign 4
	.lcomm	Lt_0BA9,12

.section .text
.balign 16
_EMITSTORI2F:
.type _EMITSTORI2F, @function
.cfi_startproc
push ebp
.cfi_def_cfa_offset 8
.cfi_offset 5, -8
mov ebp, esp
.cfi_def_cfa_register 5
sub esp, 36
push ebx
.L_0371:
sub esp, 8
push -1
push 0
push 0
push -2147483648
push offset Lt_0BAE
push dword ptr [ebp+8]
call HPREPOPERAND
add esp, 32
sub esp, 8
push -1
push 0
push 0
push -2147483648
push offset Lt_0BAF
push dword ptr [ebp+12]
call HPREPOPERAND
add esp, 32
mov eax, dword ptr [ebp+12]
mov ebx, dword ptr [eax+4]
and ebx, 480
je .L_0373
mov dword ptr [ebp-4], 24
jmp .L_0BAA
.L_0373:
mov ebx, dword ptr [ebp+12]
mov eax, dword ptr [ebx+4]
and eax, 31
mov dword ptr [ebp-4], eax
.L_0BAA:
mov eax, dword ptr [ebp-4]
imul eax, 28
mov ebx, dword ptr [SYMB_DTYPETB+eax+4]
mov dword ptr [Lt_0BB0], ebx
cmp dword ptr [Lt_0BB0], 1
jne .L_0376
sub esp, 8
push 0
push dword ptr [ebp+12]
call HFINDREGNOTINVREG
add esp, 16
mov dword ptr [Lt_0BB1], eax
sub esp, 12
push 0
push 0
sub esp, 4
push dword ptr [Lt_0BB1]
push 8
call HGETREGNAME
add esp, 12
push eax
push -1
push offset Lt_0BB2
call fb_StrAssign
add esp, 32
sub esp, 8
push dword ptr [Lt_0BB1]
push 0
call HISREGFREE
add esp, 16
mov dword ptr [Lt_0BB3], eax
cmp dword ptr [Lt_0BB3], 0
jne .L_0378
sub esp, 12
push dword ptr [Lt_0BB2]
call HPUSH
add esp, 16
.L_0378:
.L_0377:
mov eax, dword ptr [ebp+12]
mov ebx, dword ptr [eax+4]
and ebx, 480
je .L_0379
mov dword ptr [ebp-8], 24
jmp .L_0BAB
.L_0379:
mov ebx, dword ptr [ebp+12]
mov eax, dword ptr [ebx+4]
and eax, 31
mov dword ptr [ebp-8], eax
.L_0BAB:
mov eax, dword ptr [ebp-8]
imul eax, 28
cmp dword ptr [SYMB_DTYPETB+eax+8], 0
je .L_037C
sub esp, 12
push 0
push 7
push offset Lt_0317
push -1
push offset Lt_0BB4
call fb_StrAssign
add esp, 32
jmp .L_037B
.L_037C:
sub esp, 12
push 0
push 7
push offset Lt_0318
push -1
push offset Lt_0BB4
call fb_StrAssign
add esp, 32
.L_037B:
sub esp, 12
push 0
push -1
push offset Lt_0BB2
push -1
push offset Lt_0BB4
call fb_StrConcatAssign
add esp, 32
sub esp, 12
push 0
push 3
push offset Lt_0073
push -1
push offset Lt_0BB4
call fb_StrConcatAssign
add esp, 32
sub esp, 12
push 0
push -1
push offset Lt_0BAF
push -1
push offset Lt_0BB4
call fb_StrConcatAssign
add esp, 32
sub esp, 12
push dword ptr [Lt_0BB4]
call OUTP
add esp, 16
sub esp, 12
push dword ptr [Lt_0BB2]
call HPUSH
add esp, 16
sub esp, 12
push offset Lt_037D
call OUTP
add esp, 16
sub esp, 12
push offset Lt_034F
call OUTP
add esp, 16
cmp dword ptr [Lt_0BB3], 0
jne .L_037F
sub esp, 12
push dword ptr [Lt_0BB2]
call HPOP
add esp, 16
.L_037F:
.L_037E:
sub esp, 12
push 0
push 6
push offset Lt_0370
push -1
push offset Lt_0BB4
call fb_StrAssign
add esp, 32
sub esp, 12
push 0
push -1
push offset Lt_0BAE
push -1
push offset Lt_0BB4
call fb_StrConcatAssign
add esp, 32
sub esp, 12
push dword ptr [Lt_0BB4]
call OUTP
add esp, 16
jmp .L_0372
.L_0376:
.L_0375:
mov eax, dword ptr [ebp+12]
mov ebx, dword ptr [eax]
cmp ebx, 4
sete bl
shr ebx, 1
sbb ebx, ebx
mov eax, dword ptr [ebp+12]
mov ecx, dword ptr [eax]
test ecx, ecx
sete cl
shr ecx, 1
sbb ecx, ecx
or ebx, ecx
je .L_0381
mov ecx, dword ptr [ebp+12]
mov ebx, dword ptr [ecx+4]
and ebx, 480
je .L_0382
mov dword ptr [ebp-8], 24
jmp .L_0BAC
.L_0382:
mov ebx, dword ptr [ebp+12]
mov ecx, dword ptr [ebx+4]
and ecx, 31
mov dword ptr [ebp-8], ecx
.L_0BAC:
mov ecx, dword ptr [ebp-8]
imul ecx, 28
cmp dword ptr [SYMB_DTYPETB+ecx+8], 0
je .L_0385
mov ecx, dword ptr [ebp+12]
mov ebx, dword ptr [ecx]
cmp ebx, 4
sete bl
shr ebx, 1
sbb ebx, ebx
mov ecx, dword ptr [Lt_0BB0]
cmp ecx, 4
setl cl
shr ecx, 1
sbb ecx, ecx
and ebx, ecx
je .L_0387
sub esp, 12
push 0
push 0
sub esp, 4
mov ecx, dword ptr [ebp+12]
push dword ptr [ecx+12]
push 8
call HGETREGNAME
add esp, 12
push eax
push -1
push offset Lt_0BAF
call fb_StrAssign
add esp, 32
.L_0387:
.L_0386:
sub esp, 12
push dword ptr [Lt_0BAF]
call HPUSH
add esp, 16
sub esp, 12
push 0
push -1
sub esp, 8
push 7
push offset Lt_0367
push -1
sub esp, 4
push 12
mov eax, dword ptr [ebp+12]
mov ecx, dword ptr [eax+4]
sal ecx, 4
lea eax, [DTYPETB+ecx+4]
push eax
push 6
push offset Lt_0366
mov dword ptr [ebp-20], 0
mov dword ptr [ebp-16], 0
mov dword ptr [ebp-12], 0
lea eax, [ebp-20]
push eax
call fb_StrConcat
add esp, 24
push eax
mov dword ptr [ebp-32], 0
mov dword ptr [ebp-28], 0
mov dword ptr [ebp-24], 0
lea eax, [ebp-32]
push eax
call fb_StrConcat
add esp, 28
push eax
push -1
push offset Lt_0BB4
call fb_StrAssign
add esp, 32
sub esp, 12
push dword ptr [Lt_0BB4]
call OUTP
add esp, 16
sub esp, 12
push offset Lt_034F
call OUTP
add esp, 16
jmp .L_0384
.L_0385:
cmp dword ptr [Lt_0BB0], 4
jne .L_038B
sub esp, 12
push offset Lt_0006
call HPUSH
add esp, 16
sub esp, 12
push dword ptr [Lt_0BAF]
call HPUSH
add esp, 16
sub esp, 12
push offset Lt_036B
call OUTP
add esp, 16
sub esp, 12
push offset Lt_036A
call OUTP
add esp, 16
jmp .L_038A
.L_038B:
mov eax, dword ptr [ebp+12]
cmp dword ptr [eax], 0
je .L_038D
sub esp, 12
push offset Lt_0006
call HPUSH
add esp, 16
.L_038D:
.L_038C:
sub esp, 12
push dword ptr [Lt_0BAF]
call HPUSH
add esp, 16
sub esp, 12
push offset Lt_037D
call OUTP
add esp, 16
mov eax, dword ptr [ebp+12]
cmp dword ptr [eax], 0
je .L_038F
sub esp, 12
push offset Lt_0390
call OUTP
add esp, 16
jmp .L_038E
.L_038F:
sub esp, 12
push offset Lt_034F
call OUTP
add esp, 16
.L_038E:
.L_038A:
.L_0384:
jmp .L_0380
.L_0381:
mov eax, dword ptr [ebp+12]
mov ecx, dword ptr [eax+4]
and ecx, 480
je .L_0391
mov dword ptr [ebp-8], 24
jmp .L_0BAD
.L_0391:
mov ecx, dword ptr [ebp+12]
mov eax, dword ptr [ecx+4]
and eax, 31
mov dword ptr [ebp-8], eax
.L_0BAD:
mov eax, dword ptr [ebp-8]
imul eax, 28
cmp dword ptr [SYMB_DTYPETB+eax+8], 0
je .L_0394
sub esp, 12
push 0
push 6
push offset Lt_0366
push -1
push offset Lt_0BB4
call fb_StrAssign
add esp, 32
sub esp, 12
push 0
push -1
push offset Lt_0BAF
push -1
push offset Lt_0BB4
call fb_StrConcatAssign
add esp, 32
sub esp, 12
push dword ptr [Lt_0BB4]
call OUTP
add esp, 16
jmp .L_0393
.L_0394:
cmp dword ptr [Lt_0BB0], 4
jne .L_0396
sub esp, 12
push offset Lt_0006
call HPUSH
add esp, 16
sub esp, 12
push dword ptr [Lt_0BAF]
call HPUSH
add esp, 16
sub esp, 12
push offset Lt_036B
call OUTP
add esp, 16
sub esp, 12
push offset Lt_036A
call OUTP
add esp, 16
jmp .L_0395
.L_0396:
sub esp, 12
push offset Lt_0006
call HPUSH
add esp, 16
sub esp, 12
push dword ptr [Lt_0BAF]
call HPUSH
add esp, 16
sub esp, 12
push offset Lt_037D
call OUTP
add esp, 16
sub esp, 12
push offset Lt_0390
call OUTP
add esp, 16
.L_0395:
.L_0393:
.L_0380:
sub esp, 12
push 0
push 6
push offset Lt_0370
push -1
push offset Lt_0BB4
call fb_StrAssign
add esp, 32
sub esp, 12
push 0
push -1
push offset Lt_0BAE
push -1
push offset Lt_0BB4
call fb_StrConcatAssign
add esp, 32
sub esp, 12
push dword ptr [Lt_0BB4]
call OUTP
add esp, 16
.L_0372:
pop ebx
mov esp, ebp
pop ebp
.cfi_restore 5
.cfi_def_cfa 4, 4
ret
.size _EMITSTORI2F, .-_EMITSTORI2F
.cfi_endproc

.section .bss
.balign 4
	.lcomm	Lt_0BAE,12
.balign 4
	.lcomm	Lt_0BAF,12
.balign 4
	.lcomm	Lt_0BB0,4
.balign 4
	.lcomm	Lt_0BB4,12
.balign 4
	.lcomm	Lt_0BB2,12
.balign 4
	.lcomm	Lt_0BB1,4
.balign 4
	.lcomm	Lt_0BB3,4

.section .text
.balign 16
_EMITSTORF2F:
.type _EMITSTORF2F, @function
.cfi_startproc
push ebp
.cfi_def_cfa_offset 8
.cfi_offset 5, -8
mov ebp, esp
.cfi_def_cfa_register 5
sub esp, 20
push ebx
.L_0397:
sub esp, 8
push -1
push 0
push 0
push -2147483648
push offset Lt_0BBB
push dword ptr [ebp+8]
call HPREPOPERAND
add esp, 32
sub esp, 8
push -1
push 0
push 0
push -2147483648
push offset Lt_0BBC
push dword ptr [ebp+12]
call HPREPOPERAND
add esp, 32
mov eax, dword ptr [ebp+8]
mov ebx, dword ptr [eax+4]
and ebx, 480
je .L_0399
mov dword ptr [ebp-4], 24
jmp .L_0BB9
.L_0399:
mov ebx, dword ptr [ebp+8]
mov eax, dword ptr [ebx+4]
and eax, 31
mov dword ptr [ebp-4], eax
.L_0BB9:
mov eax, dword ptr [ebp-4]
imul eax, 28
mov ebx, dword ptr [SYMB_DTYPETB+eax+4]
mov dword ptr [Lt_0BBD], ebx
mov ebx, dword ptr [ebp+12]
mov eax, dword ptr [ebx+4]
and eax, 480
je .L_039B
mov dword ptr [ebp-8], 24
jmp .L_0BBA
.L_039B:
mov eax, dword ptr [ebp+12]
mov ebx, dword ptr [eax+4]
and ebx, 31
mov dword ptr [ebp-8], ebx
.L_0BBA:
mov ebx, dword ptr [ebp-8]
imul ebx, 28
mov eax, dword ptr [SYMB_DTYPETB+ebx+4]
mov dword ptr [Lt_0BBE], eax
mov eax, dword ptr [ebp+12]
cmp dword ptr [eax], 4
jne .L_039E
sub esp, 12
push 0
push 6
push offset Lt_0370
push -1
push offset Lt_0BBF
call fb_StrAssign
add esp, 32
sub esp, 12
push 0
push -1
push offset Lt_0BBB
push -1
push offset Lt_0BBF
call fb_StrConcatAssign
add esp, 32
sub esp, 12
push dword ptr [Lt_0BBF]
call OUTP
add esp, 16
jmp .L_039D
.L_039E:
mov eax, dword ptr [Lt_0BBD]
cmp dword ptr [Lt_0BBE], eax
jne .L_03A0
sub esp, 8
push -1
push 0
push 0
push 8
push offset Lt_0BBC
push dword ptr [ebp+12]
call HPREPOPERAND
add esp, 32
sub esp, 12
push 0
push 6
push offset Lt_0173
push -1
push offset Lt_0BBF
call fb_StrAssign
add esp, 32
sub esp, 12
push 0
push -1
push offset Lt_0BBC
push -1
push offset Lt_0BBF
call fb_StrConcatAssign
add esp, 32
sub esp, 12
push dword ptr [Lt_0BBF]
call OUTP
add esp, 16
cmp dword ptr [Lt_0BBE], 4
jle .L_03A2
sub esp, 8
push -1
push 0
push 4
push 8
push offset Lt_0BBC
push dword ptr [ebp+12]
call HPREPOPERAND
add esp, 32
sub esp, 12
push 0
push 6
push offset Lt_0173
push -1
push offset Lt_0BBF
call fb_StrAssign
add esp, 32
sub esp, 12
push 0
push -1
push offset Lt_0BBC
push -1
push offset Lt_0BBF
call fb_StrConcatAssign
add esp, 32
sub esp, 12
push dword ptr [Lt_0BBF]
call OUTP
add esp, 16
sub esp, 8
push -1
push 0
push 4
push 8
push offset Lt_0BBB
push dword ptr [ebp+8]
call HPREPOPERAND
add esp, 32
sub esp, 12
push 0
push 5
push offset Lt_0178
push -1
push offset Lt_0BBF
call fb_StrAssign
add esp, 32
sub esp, 12
push 0
push -1
push offset Lt_0BBB
push -1
push offset Lt_0BBF
call fb_StrConcatAssign
add esp, 32
sub esp, 12
push dword ptr [Lt_0BBF]
call OUTP
add esp, 16
.L_03A2:
.L_03A1:
sub esp, 8
push -1
push 0
push 0
push 8
push offset Lt_0BBB
push dword ptr [ebp+8]
call HPREPOPERAND
add esp, 32
sub esp, 12
push 0
push 5
push offset Lt_0178
push -1
push offset Lt_0BBF
call fb_StrAssign
add esp, 32
sub esp, 12
push 0
push -1
push offset Lt_0BBB
push -1
push offset Lt_0BBF
call fb_StrConcatAssign
add esp, 32
sub esp, 12
push dword ptr [Lt_0BBF]
call OUTP
add esp, 16
jmp .L_039F
.L_03A0:
sub esp, 12
push 0
push 5
push offset Lt_03A3
push -1
push offset Lt_0BBF
call fb_StrAssign
add esp, 32
sub esp, 12
push 0
push -1
push offset Lt_0BBC
push -1
push offset Lt_0BBF
call fb_StrConcatAssign
add esp, 32
sub esp, 12
push dword ptr [Lt_0BBF]
call OUTP
add esp, 16
sub esp, 12
push 0
push 6
push offset Lt_0370
push -1
push offset Lt_0BBF
call fb_StrAssign
add esp, 32
sub esp, 12
push 0
push -1
push offset Lt_0BBB
push -1
push offset Lt_0BBF
call fb_StrConcatAssign
add esp, 32
sub esp, 12
push dword ptr [Lt_0BBF]
call OUTP
add esp, 16
.L_039F:
.L_039D:
.L_0398:
pop ebx
mov esp, ebp
pop ebp
.cfi_restore 5
.cfi_def_cfa 4, 4
ret
.size _EMITSTORF2F, .-_EMITSTORF2F
.cfi_endproc

.section .bss
.balign 4
	.lcomm	Lt_0BBB,12
.balign 4
	.lcomm	Lt_0BBC,12
.balign 4
	.lcomm	Lt_0BBD,4
.balign 4
	.lcomm	Lt_0BBE,4
.balign 4
	.lcomm	Lt_0BBF,12

.section .text
.balign 16
_EMITLOADL2L:
.type _EMITLOADL2L, @function
.cfi_startproc
push ebp
.cfi_def_cfa_offset 8
.cfi_offset 5, -8
mov ebp, esp
.cfi_def_cfa_register 5
sub esp, 8
.L_03A4:
sub esp, 4
push offset Lt_0BC0
push offset Lt_0BC1
push dword ptr [ebp+8]
call HPREPOPERAND64
add esp, 16
sub esp, 4
push offset Lt_0BC2
push offset Lt_0BC3
push dword ptr [ebp+12]
call HPREPOPERAND64
add esp, 16
sub esp, 12
push 0
push 5
push offset Lt_017D
push -1
push offset Lt_0BC4
call fb_StrAssign
add esp, 32
sub esp, 12
push 0
push -1
push offset Lt_0BC1
push -1
push offset Lt_0BC4
call fb_StrConcatAssign
add esp, 32
sub esp, 12
push 0
push 3
push offset Lt_0073
push -1
push offset Lt_0BC4
call fb_StrConcatAssign
add esp, 32
sub esp, 12
push 0
push -1
push offset Lt_0BC3
push -1
push offset Lt_0BC4
call fb_StrConcatAssign
add esp, 32
sub esp, 12
push dword ptr [Lt_0BC4]
call OUTP
add esp, 16
sub esp, 12
push 0
push 5
push offset Lt_017D
push -1
push offset Lt_0BC4
call fb_StrAssign
add esp, 32
sub esp, 12
push 0
push -1
push offset Lt_0BC0
push -1
push offset Lt_0BC4
call fb_StrConcatAssign
add esp, 32
sub esp, 12
push 0
push 3
push offset Lt_0073
push -1
push offset Lt_0BC4
call fb_StrConcatAssign
add esp, 32
sub esp, 12
push 0
push -1
push offset Lt_0BC2
push -1
push offset Lt_0BC4
call fb_StrConcatAssign
add esp, 32
sub esp, 12
push dword ptr [Lt_0BC4]
call OUTP
add esp, 16
.L_03A5:
mov esp, ebp
pop ebp
.cfi_restore 5
.cfi_def_cfa 4, 4
ret
.size _EMITLOADL2L, .-_EMITLOADL2L
.cfi_endproc

.section .bss
.balign 4
	.lcomm	Lt_0BC1,12
.balign 4
	.lcomm	Lt_0BC0,12
.balign 4
	.lcomm	Lt_0BC3,12
.balign 4
	.lcomm	Lt_0BC2,12
.balign 4
	.lcomm	Lt_0BC4,12

.section .text
.balign 16
_EMITLOADI2L:
.type _EMITLOADI2L, @function
.cfi_startproc
push ebp
.cfi_def_cfa_offset 8
.cfi_offset 5, -8
mov ebp, esp
.cfi_def_cfa_register 5
sub esp, 20
push ebx
.L_03A6:
mov eax, dword ptr [ebp+12]
mov ebx, dword ptr [eax+4]
and ebx, 480
je .L_03A8
mov dword ptr [ebp-4], 24
jmp .L_0BC5
.L_03A8:
mov ebx, dword ptr [ebp+12]
mov eax, dword ptr [ebx+4]
and eax, 31
mov dword ptr [ebp-4], eax
.L_0BC5:
mov eax, dword ptr [ebp-4]
imul eax, 28
mov ebx, dword ptr [SYMB_DTYPETB+eax+4]
mov dword ptr [Lt_0BC8], ebx
sub esp, 4
push offset Lt_0BC9
push offset Lt_0BCA
push dword ptr [ebp+8]
call HPREPOPERAND64
add esp, 16
sub esp, 8
push -1
push 0
push 0
push -2147483648
push offset Lt_0BCB
push dword ptr [ebp+12]
call HPREPOPERAND
add esp, 32
mov ebx, dword ptr [ebp+12]
cmp dword ptr [ebx], 0
jne .L_03AB
sub esp, 8
push dword ptr [Lt_0BCB]
push dword ptr [Lt_0BCA]
call HMOV
add esp, 16
mov ebx, dword ptr [ebp+12]
mov eax, dword ptr [ebx+4]
and eax, 480
je .L_03AC
mov dword ptr [ebp-12], 24
jmp .L_0BC6
.L_03AC:
mov eax, dword ptr [ebp+12]
mov ebx, dword ptr [eax+4]
and ebx, 31
mov dword ptr [ebp-12], ebx
.L_0BC6:
mov ebx, dword ptr [ebp-12]
imul ebx, 28
mov eax, dword ptr [ebp+12]
cmp dword ptr [eax+28], 0
mov ecx, -1
jl .L_0BCC
jg .L_0BCD
cmp dword ptr [eax+24], 0
jb .L_0BCC
.L_0BCD:
xor ecx, ecx
.L_0BCC:
and ecx, dword ptr [SYMB_DTYPETB+ebx+8]
je .L_03AF
sub esp, 8
push offset Lt_0310
push dword ptr [Lt_0BC9]
call HMOV
add esp, 16
jmp .L_03AE
.L_03AF:
sub esp, 8
push offset Lt_0006
push dword ptr [Lt_0BC9]
call HMOV
add esp, 16
.L_03AE:
jmp .L_03A7
.L_03AB:
.L_03AA:
mov ebx, dword ptr [ebp+12]
mov ecx, dword ptr [ebx+4]
and ecx, 480
je .L_03B0
mov dword ptr [ebp-8], 24
jmp .L_0BC7
.L_03B0:
mov ecx, dword ptr [ebp+12]
mov ebx, dword ptr [ecx+4]
and ebx, 31
mov dword ptr [ebp-8], ebx
.L_0BC7:
mov ebx, dword ptr [ebp-8]
imul ebx, 28
cmp dword ptr [SYMB_DTYPETB+ebx+8], 0
je .L_03B3
cmp dword ptr [Lt_0BC8], 4
jge .L_03B5
sub esp, 12
push 0
push 7
push offset Lt_0317
push -1
push offset Lt_0BCE
call fb_StrAssign
add esp, 32
sub esp, 12
push 0
push -1
push offset Lt_0BCA
push -1
push offset Lt_0BCE
call fb_StrConcatAssign
add esp, 32
sub esp, 12
push 0
push 3
push offset Lt_0073
push -1
push offset Lt_0BCE
call fb_StrConcatAssign
add esp, 32
sub esp, 12
push 0
push -1
push offset Lt_0BCB
push -1
push offset Lt_0BCE
call fb_StrConcatAssign
add esp, 32
sub esp, 12
push dword ptr [Lt_0BCE]
call OUTP
add esp, 16
jmp .L_03B4
.L_03B5:
sub esp, 8
push dword ptr [Lt_0BCB]
push dword ptr [Lt_0BCA]
call HMOV
add esp, 16
.L_03B4:
sub esp, 8
push dword ptr [Lt_0BCA]
push dword ptr [Lt_0BC9]
call HMOV
add esp, 16
sub esp, 12
push 0
push 5
push offset Lt_031D
push -1
push offset Lt_0BCE
call fb_StrAssign
add esp, 32
sub esp, 12
push 0
push -1
push offset Lt_0BC9
push -1
push offset Lt_0BCE
call fb_StrConcatAssign
add esp, 32
sub esp, 12
push 0
push 5
push offset Lt_031E
push -1
push offset Lt_0BCE
call fb_StrConcatAssign
add esp, 32
sub esp, 12
push dword ptr [Lt_0BCE]
call OUTP
add esp, 16
jmp .L_03B2
.L_03B3:
cmp dword ptr [Lt_0BC8], 4
jge .L_03B7
sub esp, 12
push 0
push 7
push offset Lt_0318
push -1
push offset Lt_0BCE
call fb_StrAssign
add esp, 32
sub esp, 12
push 0
push -1
push offset Lt_0BCA
push -1
push offset Lt_0BCE
call fb_StrConcatAssign
add esp, 32
sub esp, 12
push 0
push 3
push offset Lt_0073
push -1
push offset Lt_0BCE
call fb_StrConcatAssign
add esp, 32
sub esp, 12
push 0
push -1
push offset Lt_0BCB
push -1
push offset Lt_0BCE
call fb_StrConcatAssign
add esp, 32
sub esp, 12
push dword ptr [Lt_0BCE]
call OUTP
add esp, 16
jmp .L_03B6
.L_03B7:
sub esp, 8
push dword ptr [Lt_0BCB]
push dword ptr [Lt_0BCA]
call HMOV
add esp, 16
.L_03B6:
sub esp, 8
push offset Lt_0006
push dword ptr [Lt_0BC9]
call HMOV
add esp, 16
.L_03B2:
.L_03A7:
pop ebx
mov esp, ebp
pop ebp
.cfi_restore 5
.cfi_def_cfa 4, 4
ret
.size _EMITLOADI2L, .-_EMITLOADI2L
.cfi_endproc

.section .bss
.balign 4
	.lcomm	Lt_0BCA,12
.balign 4
	.lcomm	Lt_0BC9,12
.balign 4
	.lcomm	Lt_0BCB,12
.balign 4
	.lcomm	Lt_0BC8,4
.balign 4
	.lcomm	Lt_0BCE,12

.section .text
.balign 16
_EMITLOADF2L:
.type _EMITLOADF2L, @function
.cfi_startproc
push ebp
.cfi_def_cfa_offset 8
.cfi_offset 5, -8
mov ebp, esp
.cfi_def_cfa_register 5
sub esp, 52
push ebx
.L_03B8:
sub esp, 8
push -1
push 0
push 0
push -2147483648
push offset Lt_0BD1
push dword ptr [ebp+8]
call HPREPOPERAND
add esp, 32
sub esp, 8
push -1
push 0
push 0
push -2147483648
push offset Lt_0BD2
push dword ptr [ebp+12]
call HPREPOPERAND
add esp, 32
mov eax, dword ptr [ebp+12]
cmp dword ptr [eax], 4
je .L_03BB
sub esp, 12
push 0
push 5
push offset Lt_03A3
push -1
push offset Lt_0BD3
call fb_StrAssign
add esp, 32
sub esp, 12
push 0
push -1
push offset Lt_0BD2
push -1
push offset Lt_0BD3
call fb_StrConcatAssign
add esp, 32
sub esp, 12
push dword ptr [Lt_0BD3]
call OUTP
add esp, 16
.L_03BB:
.L_03BA:
sub esp, 4
push offset Lt_0BD4
push offset Lt_0BD1
push dword ptr [ebp+8]
call HPREPOPERAND64
add esp, 16
mov eax, dword ptr [ebp+8]
mov ebx, dword ptr [eax+4]
and ebx, 480
je .L_03BC
mov dword ptr [ebp-4], 24
jmp .L_0BCF
.L_03BC:
mov ebx, dword ptr [ebp+8]
mov eax, dword ptr [ebx+4]
and eax, 31
mov dword ptr [ebp-4], eax
.L_0BCF:
mov eax, dword ptr [ebp-4]
imul eax, 28
cmp dword ptr [SYMB_DTYPETB+eax+8], 0
je .L_03BF
sub esp, 12
push offset Lt_035B
call OUTP
add esp, 16
sub esp, 12
push 0
push -1
sub esp, 8
push 7
push offset Lt_0367
push -1
sub esp, 4
push 12
mov eax, dword ptr [ebp+8]
mov ebx, dword ptr [eax+4]
sal ebx, 4
lea eax, [DTYPETB+ebx+4]
push eax
push 7
push offset Lt_0325
mov dword ptr [ebp-16], 0
mov dword ptr [ebp-12], 0
mov dword ptr [ebp-8], 0
lea eax, [ebp-16]
push eax
call fb_StrConcat
add esp, 24
push eax
mov dword ptr [ebp-28], 0
mov dword ptr [ebp-24], 0
mov dword ptr [ebp-20], 0
lea eax, [ebp-28]
push eax
call fb_StrConcat
add esp, 28
push eax
push -1
push offset Lt_0BD3
call fb_StrAssign
add esp, 32
sub esp, 12
push dword ptr [Lt_0BD3]
call OUTP
add esp, 16
sub esp, 12
push dword ptr [Lt_0BD1]
call HPOP
add esp, 16
sub esp, 12
push dword ptr [Lt_0BD4]
call HPOP
add esp, 16
jmp .L_03BE
.L_03BF:
sub esp, 12
push 0
push 0
sub esp, 12
call SYMBUNIQUELABEL
add esp, 12
push eax
push -1
push offset Lt_0BD5
call fb_StrAssign
add esp, 32
sub esp, 12
push 0
push 0
sub esp, 12
call SYMBUNIQUELABEL
add esp, 12
push eax
push -1
push offset Lt_0BD6
call fb_StrAssign
add esp, 32
sub esp, 8
push 5
push 0
call HISREGFREE
add esp, 16
mov dword ptr [Lt_0BD7], eax
cmp dword ptr [Lt_0BD7], 0
jne .L_03C2
sub esp, 8
push 5
push dword ptr [ebp+8]
call HISREGINVREG
add esp, 16
test eax, eax
setne al
shr eax, 1
sbb eax, eax
mov dword ptr [ebp-8], eax
jmp .L_0BD0
.L_03C2:
mov dword ptr [ebp-8], -1
.L_0BD0:
mov eax, dword ptr [ebp-8]
mov dword ptr [Lt_0BD7], eax
sub esp, 12
push offset Lt_035B
call OUTP
add esp, 16
sub esp, 12
push offset Lt_03C4
call OUTP
add esp, 16
cmp dword ptr [ENV+112], 3
jl .L_03C6
sub esp, 12
push offset Lt_03C7
call OUTP
add esp, 16
sub esp, 12
push offset Lt_03C8
call OUTP
add esp, 16
sub esp, 8
push dword ptr [Lt_0BD5]
push offset Lt_03C9
call HBRANCH
add esp, 16
jmp .L_03C5
.L_03C6:
sub esp, 12
push offset Lt_03CA
call OUTP
add esp, 16
cmp dword ptr [Lt_0BD7], 0
je .L_03CC
sub esp, 12
push offset Lt_03CD
call OUTP
add esp, 16
sub esp, 12
push offset Lt_03CE
call OUTP
add esp, 16
jmp .L_03CB
.L_03CC:
sub esp, 12
push offset Lt_0087
call HPUSH
add esp, 16
sub esp, 12
push offset Lt_03CD
call OUTP
add esp, 16
sub esp, 12
push offset Lt_03CE
call OUTP
add esp, 16
sub esp, 12
push offset Lt_0087
call HPOP
add esp, 16
.L_03CB:
sub esp, 8
push dword ptr [Lt_0BD5]
push offset Lt_03CF
call HBRANCH
add esp, 16
.L_03C5:
sub esp, 12
push offset Lt_035C
call OUTP
add esp, 16
sub esp, 12
push dword ptr [Lt_0BD1]
call HPOP
add esp, 16
sub esp, 12
push dword ptr [Lt_0BD4]
call HPOP
add esp, 16
sub esp, 8
push dword ptr [Lt_0BD6]
push offset Lt_03D0
call HBRANCH
add esp, 16
sub esp, 12
push dword ptr [Lt_0BD5]
call HLABEL
add esp, 16
sub esp, 12
push offset Lt_03D1
call OUTP
add esp, 16
sub esp, 12
push offset Lt_035C
call OUTP
add esp, 16
sub esp, 12
push dword ptr [Lt_0BD1]
call HPOP
add esp, 16
sub esp, 12
push dword ptr [Lt_0BD4]
call HPOP
add esp, 16
sub esp, 12
mov dword ptr [ebp-44], 0
mov dword ptr [ebp-40], 0
mov dword ptr [ebp-36], 0
push 0
push -1
sub esp, 8
push 13
push offset Lt_03D3
push -1
sub esp, 4
push -1
push offset Lt_0BD4
push 5
push offset Lt_03D2
mov dword ptr [ebp-20], 0
mov dword ptr [ebp-16], 0
mov dword ptr [ebp-12], 0
lea eax, [ebp-20]
push eax
call fb_StrConcat
add esp, 24
push eax
mov dword ptr [ebp-32], 0
mov dword ptr [ebp-28], 0
mov dword ptr [ebp-24], 0
lea eax, [ebp-32]
push eax
call fb_StrConcat
add esp, 28
push eax
push -1
lea eax, [ebp-44]
push eax
call fb_StrAssign
add esp, 20
push dword ptr [ebp-44]
call OUTP
add esp, 16
sub esp, 12
lea eax, [ebp-44]
push eax
call fb_StrDelete
add esp, 16
sub esp, 12
push dword ptr [Lt_0BD6]
call HLABEL
add esp, 16
.L_03BE:
.L_03B9:
pop ebx
mov esp, ebp
pop ebp
.cfi_restore 5
.cfi_def_cfa 4, 4
ret
.size _EMITLOADF2L, .-_EMITLOADF2L
.cfi_endproc

.section .bss
.balign 4
	.lcomm	Lt_0BD1,12
.balign 4
	.lcomm	Lt_0BD2,12
.balign 4
	.lcomm	Lt_0BD4,12
.balign 4
	.lcomm	Lt_0BD3,12
.balign 4
	.lcomm	Lt_0BD5,12
.balign 4
	.lcomm	Lt_0BD6,12
.balign 4
	.lcomm	Lt_0BD7,4

.section .text
.balign 16
_EMITLOADI2I:
.type _EMITLOADI2I, @function
.cfi_startproc
push ebp
.cfi_def_cfa_offset 8
.cfi_offset 5, -8
mov ebp, esp
.cfi_def_cfa_register 5
sub esp, 20
push ebx
.L_03D7:
sub esp, 8
push -1
push 0
push 0
push -2147483648
push offset Lt_0BDC
push dword ptr [ebp+8]
call HPREPOPERAND
add esp, 32
sub esp, 8
push -1
push 0
push 0
push -2147483648
push offset Lt_0BDD
push dword ptr [ebp+12]
call HPREPOPERAND
add esp, 32
mov eax, dword ptr [ebp+8]
mov ebx, dword ptr [eax+4]
and ebx, 480
je .L_03D9
mov dword ptr [ebp-4], 24
jmp .L_0BD9
.L_03D9:
mov ebx, dword ptr [ebp+8]
mov eax, dword ptr [ebx+4]
and eax, 31
mov dword ptr [ebp-4], eax
.L_0BD9:
mov eax, dword ptr [ebp-4]
imul eax, 28
mov ebx, dword ptr [SYMB_DTYPETB+eax+4]
mov dword ptr [Lt_0BDE], ebx
mov ebx, dword ptr [ebp+12]
mov eax, dword ptr [ebx+4]
and eax, 480
je .L_03DB
mov dword ptr [ebp-8], 24
jmp .L_0BDA
.L_03DB:
mov eax, dword ptr [ebp+12]
mov ebx, dword ptr [eax+4]
and ebx, 31
mov dword ptr [ebp-8], ebx
.L_0BDA:
mov ebx, dword ptr [ebp-8]
imul ebx, 28
mov eax, dword ptr [SYMB_DTYPETB+ebx+4]
mov dword ptr [Lt_0BDF], eax
cmp dword ptr [Lt_0BDE], 1
jne .L_03DE
mov eax, dword ptr [ebp+12]
cmp dword ptr [eax], 0
jne .L_03E0
mov dword ptr [Lt_0BDE], 4
.L_03E0:
.L_03DF:
.L_03DE:
.L_03DD:
mov eax, dword ptr [ebp+12]
mov ebx, dword ptr [eax]
test ebx, ebx
sete bl
shr ebx, 1
sbb ebx, ebx
mov eax, dword ptr [Lt_0BDF]
cmp eax, dword ptr [Lt_0BDE]
sete al
shr eax, 1
sbb eax, eax
or ebx, eax
je .L_03E2
sub esp, 12
push 0
push 5
push offset Lt_017D
push -1
push offset Lt_0BE2
call fb_StrAssign
add esp, 32
sub esp, 12
push 0
push -1
push offset Lt_0BDC
push -1
push offset Lt_0BE2
call fb_StrConcatAssign
add esp, 32
sub esp, 12
push 0
push 3
push offset Lt_0073
push -1
push offset Lt_0BE2
call fb_StrConcatAssign
add esp, 32
sub esp, 12
push 0
push -1
push offset Lt_0BDD
push -1
push offset Lt_0BE2
call fb_StrConcatAssign
add esp, 32
sub esp, 12
push dword ptr [Lt_0BE2]
call OUTP
add esp, 16
jmp .L_03E1
.L_03E2:
mov eax, dword ptr [Lt_0BDF]
cmp dword ptr [Lt_0BDE], eax
jle .L_03E4
mov eax, dword ptr [ebp+12]
mov ebx, dword ptr [eax+4]
and ebx, 480
je .L_03E5
mov dword ptr [ebp-12], 24
jmp .L_0BDB
.L_03E5:
mov ebx, dword ptr [ebp+12]
mov eax, dword ptr [ebx+4]
and eax, 31
mov dword ptr [ebp-12], eax
.L_0BDB:
mov eax, dword ptr [ebp-12]
imul eax, 28
cmp dword ptr [SYMB_DTYPETB+eax+8], 0
je .L_03E8
sub esp, 12
push 0
push 7
push offset Lt_0317
push -1
push offset Lt_0BE2
call fb_StrAssign
add esp, 32
jmp .L_03E7
.L_03E8:
sub esp, 12
push 0
push 7
push offset Lt_0318
push -1
push offset Lt_0BE2
call fb_StrAssign
add esp, 32
.L_03E7:
sub esp, 12
push 0
push -1
push offset Lt_0BDC
push -1
push offset Lt_0BE2
call fb_StrConcatAssign
add esp, 32
sub esp, 12
push 0
push 3
push offset Lt_0073
push -1
push offset Lt_0BE2
call fb_StrConcatAssign
add esp, 32
sub esp, 12
push 0
push -1
push offset Lt_0BDD
push -1
push offset Lt_0BE2
call fb_StrConcatAssign
add esp, 32
sub esp, 12
push dword ptr [Lt_0BE2]
call OUTP
add esp, 16
jmp .L_03E3
.L_03E4:
mov eax, dword ptr [ebp+12]
cmp dword ptr [eax], 4
jne .L_03EA
mov eax, dword ptr [ebp+12]
mov ebx, dword ptr [ebp+8]
mov ecx, dword ptr [ebx+12]
cmp dword ptr [eax+12], ecx
je .L_03EC
mov ecx, dword ptr [ebp+8]
mov eax, dword ptr [ecx+4]
mov dword ptr [Lt_0BE3], eax
cmp dword ptr [Lt_0BDE], 1
jne .L_03EE
mov eax, dword ptr [ebp+12]
mov ecx, dword ptr [eax+12]
cmp ecx, 2
sete cl
shr ecx, 1
sbb ecx, ecx
mov eax, dword ptr [ebp+12]
mov ebx, dword ptr [eax+12]
cmp ebx, 1
sete bl
shr ebx, 1
sbb ebx, ebx
or ecx, ebx
je .L_03F0
mov dword ptr [Lt_0BE3], 8
sub esp, 12
push 0
push 0
sub esp, 4
mov ebx, dword ptr [ebp+8]
push dword ptr [ebx+12]
push dword ptr [Lt_0BE3]
call HGETREGNAME
add esp, 12
push eax
push -1
push offset Lt_0BDC
call fb_StrAssign
add esp, 32
.L_03F0:
.L_03EF:
.L_03EE:
.L_03ED:
sub esp, 12
push 0
push 0
sub esp, 4
mov eax, dword ptr [ebp+12]
push dword ptr [eax+12]
push dword ptr [Lt_0BE3]
call HGETREGNAME
add esp, 12
push eax
push -1
push offset Lt_0BE6
call fb_StrAssign
add esp, 32
sub esp, 12
push 0
push 5
push offset Lt_017D
push -1
push offset Lt_0BE2
call fb_StrAssign
add esp, 32
sub esp, 12
push 0
push -1
push offset Lt_0BDC
push -1
push offset Lt_0BE2
call fb_StrConcatAssign
add esp, 32
sub esp, 12
push 0
push 3
push offset Lt_0073
push -1
push offset Lt_0BE2
call fb_StrConcatAssign
add esp, 32
sub esp, 12
push 0
push -1
push offset Lt_0BE6
push -1
push offset Lt_0BE2
call fb_StrConcatAssign
add esp, 32
sub esp, 12
push dword ptr [Lt_0BE2]
call OUTP
add esp, 16
.L_03EC:
.L_03EB:
jmp .L_03E9
.L_03EA:
sub esp, 8
push -1
push 0
push 0
mov eax, dword ptr [ebp+8]
push dword ptr [eax+4]
push offset Lt_0BDD
push dword ptr [ebp+12]
call HPREPOPERAND
add esp, 32
sub esp, 12
push 0
push 5
push offset Lt_017D
push -1
push offset Lt_0BE2
call fb_StrAssign
add esp, 32
sub esp, 12
push 0
push -1
push offset Lt_0BDC
push -1
push offset Lt_0BE2
call fb_StrConcatAssign
add esp, 32
sub esp, 12
push 0
push 3
push offset Lt_0073
push -1
push offset Lt_0BE2
call fb_StrConcatAssign
add esp, 32
sub esp, 12
push 0
push -1
push offset Lt_0BDD
push -1
push offset Lt_0BE2
call fb_StrConcatAssign
add esp, 32
sub esp, 12
push dword ptr [Lt_0BE2]
call OUTP
add esp, 16
.L_03E9:
.L_03E3:
.L_03E1:
.L_03D8:
pop ebx
mov esp, ebp
pop ebp
.cfi_restore 5
.cfi_def_cfa 4, 4
ret
.size _EMITLOADI2I, .-_EMITLOADI2I
.cfi_endproc

.section .bss
.balign 4
	.lcomm	Lt_0BDC,12
.balign 4
	.lcomm	Lt_0BDD,12
.balign 4
	.lcomm	Lt_0BDE,4
.balign 4
	.lcomm	Lt_0BDF,4
.balign 4
	.lcomm	Lt_0BE2,12
.balign 4
	.lcomm	Lt_0BE6,12
.balign 4
	.lcomm	Lt_0BE3,4

.section .text
.balign 16
_EMITLOADL2I:
.type _EMITLOADL2I, @function
.cfi_startproc
push ebp
.cfi_def_cfa_offset 8
.cfi_offset 5, -8
mov ebp, esp
.cfi_def_cfa_register 5
sub esp, 8
.L_03F1:
sub esp, 8
push dword ptr [ebp+12]
push dword ptr [ebp+8]
call _EMITLOADI2I
add esp, 16
.L_03F2:
mov esp, ebp
pop ebp
.cfi_restore 5
.cfi_def_cfa 4, 4
ret
.size _EMITLOADL2I, .-_EMITLOADL2I
.cfi_endproc
.balign 16
_EMITLOADF2I:
.type _EMITLOADF2I, @function
.cfi_startproc
push ebp
.cfi_def_cfa_offset 8
.cfi_offset 5, -8
mov ebp, esp
.cfi_def_cfa_register 5
sub esp, 36
push ebx
.L_03F3:
sub esp, 8
push -1
push 0
push 0
push -2147483648
push offset Lt_0BE9
push dword ptr [ebp+8]
call HPREPOPERAND
add esp, 32
sub esp, 8
push -1
push 0
push 0
push -2147483648
push offset Lt_0BEA
push dword ptr [ebp+12]
call HPREPOPERAND
add esp, 32
mov eax, dword ptr [ebp+8]
mov ebx, dword ptr [eax+4]
and ebx, 480
je .L_03F5
mov dword ptr [ebp-4], 24
jmp .L_0BE7
.L_03F5:
mov ebx, dword ptr [ebp+8]
mov eax, dword ptr [ebx+4]
and eax, 31
mov dword ptr [ebp-4], eax
.L_0BE7:
mov eax, dword ptr [ebp-4]
imul eax, 28
mov ebx, dword ptr [SYMB_DTYPETB+eax+4]
mov dword ptr [Lt_0BEB], ebx
mov ebx, dword ptr [ebp+12]
cmp dword ptr [ebx], 4
je .L_03F8
sub esp, 12
push 0
push 5
push offset Lt_03A3
push -1
push offset Lt_0BEC
call fb_StrAssign
add esp, 32
sub esp, 12
push 0
push -1
push offset Lt_0BEA
push -1
push offset Lt_0BEC
call fb_StrConcatAssign
add esp, 32
sub esp, 12
push dword ptr [Lt_0BEC]
call OUTP
add esp, 16
.L_03F8:
.L_03F7:
cmp dword ptr [Lt_0BEB], 1
jne .L_03FA
sub esp, 12
push offset Lt_034A
call OUTP
add esp, 16
sub esp, 12
push offset Lt_034B
call OUTP
add esp, 16
mov ebx, dword ptr [ebp+8]
cmp dword ptr [ebx], 4
jne .L_03FC
sub esp, 8
push offset Lt_034E
push dword ptr [Lt_0BE9]
call HMOV
add esp, 16
sub esp, 12
push offset Lt_034F
call OUTP
add esp, 16
jmp .L_03FB
.L_03FC:
sub esp, 8
push -1
push dword ptr [ebp+8]
call HFINDREGNOTINVREG
add esp, 16
mov dword ptr [Lt_0BED], eax
sub esp, 12
push 0
push 0
sub esp, 4
push dword ptr [Lt_0BED]
push 2
call HGETREGNAME
add esp, 12
push eax
push -1
push offset Lt_0BEE
call fb_StrAssign
add esp, 32
sub esp, 12
push 0
push 0
sub esp, 4
push dword ptr [Lt_0BED]
push 8
call HGETREGNAME
add esp, 12
push eax
push -1
push offset Lt_0BEF
call fb_StrAssign
add esp, 32
sub esp, 8
push dword ptr [Lt_0BED]
push 0
call HISREGFREE
add esp, 16
mov dword ptr [Lt_0BF0], eax
cmp dword ptr [Lt_0BF0], 0
jne .L_03FE
sub esp, 8
push offset Lt_0352
push dword ptr [Lt_0BEF]
call HXCHG
add esp, 16
jmp .L_03FD
.L_03FE:
sub esp, 8
push offset Lt_034E
push dword ptr [Lt_0BEE]
call HMOV
add esp, 16
.L_03FD:
sub esp, 8
push dword ptr [Lt_0BEE]
push dword ptr [Lt_0BE9]
call HMOV
add esp, 16
cmp dword ptr [Lt_0BF0], 0
jne .L_0400
sub esp, 12
push dword ptr [Lt_0BEF]
call HPOP
add esp, 16
jmp .L_03FF
.L_0400:
sub esp, 12
push offset Lt_034F
call OUTP
add esp, 16
.L_03FF:
.L_03FB:
jmp .L_03F9
.L_03FA:
mov eax, dword ptr [ebp+8]
mov ebx, dword ptr [eax+4]
and ebx, 480
je .L_0401
mov dword ptr [ebp-8], 24
jmp .L_0BE8
.L_0401:
mov ebx, dword ptr [ebp+8]
mov eax, dword ptr [ebx+4]
and eax, 31
mov dword ptr [ebp-8], eax
.L_0BE8:
mov eax, dword ptr [ebp-8]
imul eax, 28
cmp dword ptr [SYMB_DTYPETB+eax+8], 0
je .L_0404
sub esp, 12
push offset Lt_034A
call OUTP
add esp, 16
sub esp, 12
push 0
push -1
sub esp, 8
push 7
push offset Lt_0367
push -1
sub esp, 4
push 12
mov eax, dword ptr [ebp+8]
mov ebx, dword ptr [eax+4]
sal ebx, 4
lea eax, [DTYPETB+ebx+4]
push eax
push 7
push offset Lt_0325
mov dword ptr [ebp-20], 0
mov dword ptr [ebp-16], 0
mov dword ptr [ebp-12], 0
lea eax, [ebp-20]
push eax
call fb_StrConcat
add esp, 24
push eax
mov dword ptr [ebp-32], 0
mov dword ptr [ebp-28], 0
mov dword ptr [ebp-24], 0
lea eax, [ebp-32]
push eax
call fb_StrConcat
add esp, 28
push eax
push -1
push offset Lt_0BEC
call fb_StrAssign
add esp, 32
sub esp, 12
push dword ptr [Lt_0BEC]
call OUTP
add esp, 16
cmp dword ptr [Lt_0BEB], 4
jge .L_0408
sub esp, 12
push 0
push 0
sub esp, 4
mov eax, dword ptr [ebp+8]
push dword ptr [eax+12]
push 8
call HGETREGNAME
add esp, 12
push eax
push -1
push offset Lt_0BE9
call fb_StrAssign
add esp, 32
.L_0408:
.L_0407:
sub esp, 12
push dword ptr [Lt_0BE9]
call HPOP
add esp, 16
jmp .L_0403
.L_0404:
cmp dword ptr [Lt_0BEB], 4
jne .L_040A
sub esp, 12
push offset Lt_035B
call OUTP
add esp, 16
sub esp, 12
push offset Lt_035C
call OUTP
add esp, 16
sub esp, 12
push dword ptr [Lt_0BE9]
call HPOP
add esp, 16
sub esp, 12
push offset Lt_034F
call OUTP
add esp, 16
jmp .L_0409
.L_040A:
sub esp, 12
push offset Lt_034A
call OUTP
add esp, 16
sub esp, 12
push offset Lt_034B
call OUTP
add esp, 16
sub esp, 12
push dword ptr [Lt_0BE9]
call HPOP
add esp, 16
sub esp, 12
push offset Lt_035D
call OUTP
add esp, 16
.L_0409:
.L_0403:
.L_03F9:
.L_03F4:
pop ebx
mov esp, ebp
pop ebp
.cfi_restore 5
.cfi_def_cfa 4, 4
ret
.size _EMITLOADF2I, .-_EMITLOADF2I
.cfi_endproc

.section .bss
.balign 4
	.lcomm	Lt_0BE9,12
.balign 4
	.lcomm	Lt_0BEA,12
.balign 4
	.lcomm	Lt_0BEB,4
.balign 4
	.lcomm	Lt_0BEC,12
.balign 4
	.lcomm	Lt_0BEF,12
.balign 4
	.lcomm	Lt_0BEE,12
.balign 4
	.lcomm	Lt_0BED,4
.balign 4
	.lcomm	Lt_0BF0,4

.section .text
.balign 16
_EMITLOADL2F:
.type _EMITLOADL2F, @function
.cfi_startproc
push ebp
.cfi_def_cfa_offset 8
.cfi_offset 5, -8
mov ebp, esp
.cfi_def_cfa_register 5
sub esp, 36
push ebx
.L_040B:
sub esp, 8
push -1
push 0
push 0
push -2147483648
push offset Lt_0BF3
push dword ptr [ebp+8]
call HPREPOPERAND
add esp, 32
sub esp, 8
push -1
push 0
push 0
push -2147483648
push offset Lt_0BF4
push dword ptr [ebp+12]
call HPREPOPERAND
add esp, 32
mov eax, dword ptr [ebp+12]
mov ebx, dword ptr [eax]
cmp ebx, 4
sete bl
shr ebx, 1
sbb ebx, ebx
mov eax, dword ptr [ebp+12]
mov ecx, dword ptr [eax]
test ecx, ecx
sete cl
shr ecx, 1
sbb ecx, ecx
or ebx, ecx
je .L_040E
mov ecx, dword ptr [ebp+12]
mov ebx, dword ptr [ecx+4]
and ebx, 480
je .L_040F
mov dword ptr [ebp-4], 24
jmp .L_0BF1
.L_040F:
mov ebx, dword ptr [ebp+12]
mov ecx, dword ptr [ebx+4]
and ecx, 31
mov dword ptr [ebp-4], ecx
.L_0BF1:
mov ecx, dword ptr [ebp-4]
imul ecx, 28
cmp dword ptr [SYMB_DTYPETB+ecx+8], 0
je .L_0412
sub esp, 4
push offset Lt_0BF7
push offset Lt_0BF4
push dword ptr [ebp+12]
call HPREPOPERAND64
add esp, 16
sub esp, 12
push dword ptr [Lt_0BF7]
call HPUSH
add esp, 16
sub esp, 12
push dword ptr [Lt_0BF4]
call HPUSH
add esp, 16
sub esp, 12
push 0
push -1
sub esp, 8
push 7
push offset Lt_0367
push -1
sub esp, 4
push 12
mov ecx, dword ptr [ebp+12]
mov ebx, dword ptr [ecx+4]
sal ebx, 4
lea ecx, [DTYPETB+ebx+4]
push ecx
push 6
push offset Lt_0366
mov dword ptr [ebp-16], 0
mov dword ptr [ebp-12], 0
mov dword ptr [ebp-8], 0
lea ecx, [ebp-16]
push ecx
call fb_StrConcat
add esp, 24
push eax
mov dword ptr [ebp-28], 0
mov dword ptr [ebp-24], 0
mov dword ptr [ebp-20], 0
lea eax, [ebp-28]
push eax
call fb_StrConcat
add esp, 28
push eax
push -1
push offset Lt_0BF8
call fb_StrAssign
add esp, 32
sub esp, 12
push dword ptr [Lt_0BF8]
call OUTP
add esp, 16
sub esp, 12
push offset Lt_036A
call OUTP
add esp, 16
jmp .L_0411
.L_0412:
sub esp, 4
push offset Lt_0BF7
push offset Lt_0BF4
push dword ptr [ebp+12]
call HPREPOPERAND64
add esp, 16
sub esp, 12
push dword ptr [Lt_0BF7]
call HPUSH
add esp, 16
sub esp, 12
push dword ptr [Lt_0BF4]
call HPUSH
add esp, 16
sub esp, 12
push offset Lt_036B
call OUTP
add esp, 16
sub esp, 12
push offset Lt_036A
call OUTP
add esp, 16
sub esp, 12
push dword ptr [ebp+12]
call HULONG2DBL
add esp, 16
.L_0411:
jmp .L_040D
.L_040E:
mov eax, dword ptr [ebp+12]
mov ecx, dword ptr [eax+4]
and ecx, 480
je .L_0415
mov dword ptr [ebp-4], 24
jmp .L_0BF2
.L_0415:
mov ecx, dword ptr [ebp+12]
mov eax, dword ptr [ecx+4]
and eax, 31
mov dword ptr [ebp-4], eax
.L_0BF2:
mov eax, dword ptr [ebp-4]
imul eax, 28
cmp dword ptr [SYMB_DTYPETB+eax+8], 0
je .L_0418
sub esp, 12
push 0
push 6
push offset Lt_0366
push -1
push offset Lt_0BF8
call fb_StrAssign
add esp, 32
sub esp, 12
push 0
push -1
push offset Lt_0BF4
push -1
push offset Lt_0BF8
call fb_StrConcatAssign
add esp, 32
sub esp, 12
push dword ptr [Lt_0BF8]
call OUTP
add esp, 16
jmp .L_0417
.L_0418:
sub esp, 12
push 0
push 6
push offset Lt_0366
push -1
push offset Lt_0BF8
call fb_StrAssign
add esp, 32
sub esp, 12
push 0
push -1
push offset Lt_0BF4
push -1
push offset Lt_0BF8
call fb_StrConcatAssign
add esp, 32
sub esp, 12
push dword ptr [Lt_0BF8]
call OUTP
add esp, 16
sub esp, 12
push dword ptr [ebp+12]
call HULONG2DBL
add esp, 16
.L_0417:
.L_040D:
.L_040C:
pop ebx
mov esp, ebp
pop ebp
.cfi_restore 5
.cfi_def_cfa 4, 4
ret
.size _EMITLOADL2F, .-_EMITLOADL2F
.cfi_endproc

.section .bss
.balign 4
	.lcomm	Lt_0BF3,12
.balign 4
	.lcomm	Lt_0BF4,12
.balign 4
	.lcomm	Lt_0BF7,12
.balign 4
	.lcomm	Lt_0BF8,12

.section .text
.balign 16
_EMITLOADI2F:
.type _EMITLOADI2F, @function
.cfi_startproc
push ebp
.cfi_def_cfa_offset 8
.cfi_offset 5, -8
mov ebp, esp
.cfi_def_cfa_register 5
sub esp, 36
push ebx
.L_0419:
sub esp, 8
push -1
push 0
push 0
push -2147483648
push offset Lt_0BFD
push dword ptr [ebp+8]
call HPREPOPERAND
add esp, 32
sub esp, 8
push -1
push 0
push 0
push -2147483648
push offset Lt_0BFE
push dword ptr [ebp+12]
call HPREPOPERAND
add esp, 32
mov eax, dword ptr [ebp+12]
mov ebx, dword ptr [eax+4]
and ebx, 480
je .L_041B
mov dword ptr [ebp-4], 24
jmp .L_0BF9
.L_041B:
mov ebx, dword ptr [ebp+12]
mov eax, dword ptr [ebx+4]
and eax, 31
mov dword ptr [ebp-4], eax
.L_0BF9:
mov eax, dword ptr [ebp-4]
imul eax, 28
mov ebx, dword ptr [SYMB_DTYPETB+eax+4]
mov dword ptr [Lt_0BFF], ebx
cmp dword ptr [Lt_0BFF], 1
jne .L_041E
sub esp, 8
push 0
push dword ptr [ebp+12]
call HFINDREGNOTINVREG
add esp, 16
mov dword ptr [Lt_0C00], eax
sub esp, 12
push 0
push 0
sub esp, 4
push dword ptr [Lt_0C00]
push 8
call HGETREGNAME
add esp, 12
push eax
push -1
push offset Lt_0C01
call fb_StrAssign
add esp, 32
sub esp, 8
push dword ptr [Lt_0C00]
push 0
call HISREGFREE
add esp, 16
mov dword ptr [Lt_0C02], eax
cmp dword ptr [Lt_0C02], 0
jne .L_0420
sub esp, 12
push dword ptr [Lt_0C01]
call HPUSH
add esp, 16
.L_0420:
.L_041F:
mov eax, dword ptr [ebp+12]
mov ebx, dword ptr [eax+4]
and ebx, 480
je .L_0421
mov dword ptr [ebp-8], 24
jmp .L_0BFA
.L_0421:
mov ebx, dword ptr [ebp+12]
mov eax, dword ptr [ebx+4]
and eax, 31
mov dword ptr [ebp-8], eax
.L_0BFA:
mov eax, dword ptr [ebp-8]
imul eax, 28
cmp dword ptr [SYMB_DTYPETB+eax+8], 0
je .L_0424
sub esp, 12
push 0
push 7
push offset Lt_0317
push -1
push offset Lt_0C03
call fb_StrAssign
add esp, 32
sub esp, 12
push 0
push -1
push offset Lt_0C01
push -1
push offset Lt_0C03
call fb_StrConcatAssign
add esp, 32
sub esp, 12
push 0
push 3
push offset Lt_0073
push -1
push offset Lt_0C03
call fb_StrConcatAssign
add esp, 32
sub esp, 12
push 0
push -1
push offset Lt_0BFE
push -1
push offset Lt_0C03
call fb_StrConcatAssign
add esp, 32
sub esp, 12
push dword ptr [Lt_0C03]
call OUTP
add esp, 16
jmp .L_0423
.L_0424:
sub esp, 12
push 0
push 7
push offset Lt_0318
push -1
push offset Lt_0C03
call fb_StrAssign
add esp, 32
sub esp, 12
push 0
push -1
push offset Lt_0C01
push -1
push offset Lt_0C03
call fb_StrConcatAssign
add esp, 32
sub esp, 12
push 0
push 3
push offset Lt_0073
push -1
push offset Lt_0C03
call fb_StrConcatAssign
add esp, 32
sub esp, 12
push 0
push -1
push offset Lt_0BFE
push -1
push offset Lt_0C03
call fb_StrConcatAssign
add esp, 32
sub esp, 12
push dword ptr [Lt_0C03]
call OUTP
add esp, 16
.L_0423:
sub esp, 12
push dword ptr [Lt_0C01]
call HPUSH
add esp, 16
sub esp, 12
push offset Lt_037D
call OUTP
add esp, 16
sub esp, 12
push offset Lt_034F
call OUTP
add esp, 16
cmp dword ptr [Lt_0C02], 0
jne .L_0426
sub esp, 12
push dword ptr [Lt_0C01]
call HPOP
add esp, 16
.L_0426:
.L_0425:
jmp .L_041A
.L_041E:
.L_041D:
mov eax, dword ptr [ebp+12]
mov ebx, dword ptr [eax]
cmp ebx, 4
sete bl
shr ebx, 1
sbb ebx, ebx
mov eax, dword ptr [ebp+12]
mov ecx, dword ptr [eax]
test ecx, ecx
sete cl
shr ecx, 1
sbb ecx, ecx
or ebx, ecx
je .L_0428
mov ecx, dword ptr [ebp+12]
mov ebx, dword ptr [ecx+4]
and ebx, 480
je .L_0429
mov dword ptr [ebp-8], 24
jmp .L_0BFB
.L_0429:
mov ebx, dword ptr [ebp+12]
mov ecx, dword ptr [ebx+4]
and ecx, 31
mov dword ptr [ebp-8], ecx
.L_0BFB:
mov ecx, dword ptr [ebp-8]
imul ecx, 28
cmp dword ptr [SYMB_DTYPETB+ecx+8], 0
je .L_042C
mov ecx, dword ptr [ebp+12]
mov ebx, dword ptr [ecx]
cmp ebx, 4
sete bl
shr ebx, 1
sbb ebx, ebx
mov ecx, dword ptr [Lt_0BFF]
cmp ecx, 4
setl cl
shr ecx, 1
sbb ecx, ecx
and ebx, ecx
je .L_042E
sub esp, 12
push 0
push 0
sub esp, 4
mov ecx, dword ptr [ebp+12]
push dword ptr [ecx+12]
push 8
call HGETREGNAME
add esp, 12
push eax
push -1
push offset Lt_0BFE
call fb_StrAssign
add esp, 32
.L_042E:
.L_042D:
sub esp, 12
push dword ptr [Lt_0BFE]
call HPUSH
add esp, 16
sub esp, 12
push 0
push -1
sub esp, 8
push 7
push offset Lt_0367
push -1
sub esp, 4
push 12
mov eax, dword ptr [ebp+12]
mov ecx, dword ptr [eax+4]
sal ecx, 4
lea eax, [DTYPETB+ecx+4]
push eax
push 6
push offset Lt_0366
mov dword ptr [ebp-20], 0
mov dword ptr [ebp-16], 0
mov dword ptr [ebp-12], 0
lea eax, [ebp-20]
push eax
call fb_StrConcat
add esp, 24
push eax
mov dword ptr [ebp-32], 0
mov dword ptr [ebp-28], 0
mov dword ptr [ebp-24], 0
lea eax, [ebp-32]
push eax
call fb_StrConcat
add esp, 28
push eax
push -1
push offset Lt_0C03
call fb_StrAssign
add esp, 32
sub esp, 12
push dword ptr [Lt_0C03]
call OUTP
add esp, 16
sub esp, 12
push offset Lt_034F
call OUTP
add esp, 16
jmp .L_042B
.L_042C:
cmp dword ptr [Lt_0BFF], 4
jne .L_0432
sub esp, 12
push offset Lt_0006
call HPUSH
add esp, 16
sub esp, 12
push dword ptr [Lt_0BFE]
call HPUSH
add esp, 16
sub esp, 12
push offset Lt_036B
call OUTP
add esp, 16
sub esp, 12
push offset Lt_036A
call OUTP
add esp, 16
jmp .L_0431
.L_0432:
mov eax, dword ptr [ebp+12]
cmp dword ptr [eax], 0
je .L_0434
sub esp, 12
push offset Lt_0006
call HPUSH
add esp, 16
.L_0434:
.L_0433:
sub esp, 12
push dword ptr [Lt_0BFE]
call HPUSH
add esp, 16
sub esp, 12
push offset Lt_037D
call OUTP
add esp, 16
mov eax, dword ptr [ebp+12]
cmp dword ptr [eax], 0
je .L_0436
sub esp, 12
push offset Lt_0390
call OUTP
add esp, 16
jmp .L_0435
.L_0436:
sub esp, 12
push offset Lt_034F
call OUTP
add esp, 16
.L_0435:
.L_0431:
.L_042B:
jmp .L_0427
.L_0428:
mov eax, dword ptr [ebp+12]
mov ecx, dword ptr [eax+4]
and ecx, 480
je .L_0437
mov dword ptr [ebp-8], 24
jmp .L_0BFC
.L_0437:
mov ecx, dword ptr [ebp+12]
mov eax, dword ptr [ecx+4]
and eax, 31
mov dword ptr [ebp-8], eax
.L_0BFC:
mov eax, dword ptr [ebp-8]
imul eax, 28
cmp dword ptr [SYMB_DTYPETB+eax+8], 0
je .L_043A
sub esp, 12
push 0
push 6
push offset Lt_0366
push -1
push offset Lt_0C03
call fb_StrAssign
add esp, 32
sub esp, 12
push 0
push -1
push offset Lt_0BFE
push -1
push offset Lt_0C03
call fb_StrConcatAssign
add esp, 32
sub esp, 12
push dword ptr [Lt_0C03]
call OUTP
add esp, 16
jmp .L_0439
.L_043A:
cmp dword ptr [Lt_0BFF], 4
jne .L_043C
sub esp, 12
push offset Lt_0006
call HPUSH
add esp, 16
sub esp, 12
push dword ptr [Lt_0BFE]
call HPUSH
add esp, 16
sub esp, 12
push offset Lt_036B
call OUTP
add esp, 16
sub esp, 12
push offset Lt_036A
call OUTP
add esp, 16
jmp .L_043B
.L_043C:
sub esp, 12
push offset Lt_0006
call HPUSH
add esp, 16
sub esp, 12
push dword ptr [Lt_0BFE]
call HPUSH
add esp, 16
sub esp, 12
push offset Lt_037D
call OUTP
add esp, 16
sub esp, 12
push offset Lt_0390
call OUTP
add esp, 16
.L_043B:
.L_0439:
.L_0427:
.L_041A:
pop ebx
mov esp, ebp
pop ebp
.cfi_restore 5
.cfi_def_cfa 4, 4
ret
.size _EMITLOADI2F, .-_EMITLOADI2F
.cfi_endproc

.section .bss
.balign 4
	.lcomm	Lt_0BFD,12
.balign 4
	.lcomm	Lt_0BFE,12
.balign 4
	.lcomm	Lt_0BFF,4
.balign 4
	.lcomm	Lt_0C03,12
.balign 4
	.lcomm	Lt_0C01,12
.balign 4
	.lcomm	Lt_0C02,4
.balign 4
	.lcomm	Lt_0C00,4

.section .text
.balign 16
_EMITLOADF2F:
.type _EMITLOADF2F, @function
.cfi_startproc
push ebp
.cfi_def_cfa_offset 8
.cfi_offset 5, -8
mov ebp, esp
.cfi_def_cfa_register 5
sub esp, 8
.L_043D:
sub esp, 8
push -1
push 0
push 0
push -2147483648
push offset Lt_0C08
push dword ptr [ebp+12]
call HPREPOPERAND
add esp, 32
sub esp, 12
push 0
push 5
push offset Lt_03A3
push -1
push offset Lt_0C09
call fb_StrAssign
add esp, 32
sub esp, 12
push 0
push -1
push offset Lt_0C08
push -1
push offset Lt_0C09
call fb_StrConcatAssign
add esp, 32
sub esp, 12
push dword ptr [Lt_0C09]
call OUTP
add esp, 16
.L_043E:
mov esp, ebp
pop ebp
.cfi_restore 5
.cfi_def_cfa 4, 4
ret
.size _EMITLOADF2F, .-_EMITLOADF2F
.cfi_endproc

.section .bss
.balign 4
	.lcomm	Lt_0C08,12
.balign 4
	.lcomm	Lt_0C09,12

.section .text
.balign 16
_EMITMOVL:
.type _EMITMOVL, @function
.cfi_startproc
push ebp
.cfi_def_cfa_offset 8
.cfi_offset 5, -8
mov ebp, esp
.cfi_def_cfa_register 5
sub esp, 8
.L_043F:
sub esp, 4
push offset Lt_0C0A
push offset Lt_0C0B
push dword ptr [ebp+8]
call HPREPOPERAND64
add esp, 16
sub esp, 4
push offset Lt_0C0C
push offset Lt_0C0D
push dword ptr [ebp+12]
call HPREPOPERAND64
add esp, 16
sub esp, 12
push 0
push 5
push offset Lt_017D
push -1
push offset Lt_0C0E
call fb_StrAssign
add esp, 32
sub esp, 12
push 0
push -1
push offset Lt_0C0B
push -1
push offset Lt_0C0E
call fb_StrConcatAssign
add esp, 32
sub esp, 12
push 0
push 3
push offset Lt_0073
push -1
push offset Lt_0C0E
call fb_StrConcatAssign
add esp, 32
sub esp, 12
push 0
push -1
push offset Lt_0C0D
push -1
push offset Lt_0C0E
call fb_StrConcatAssign
add esp, 32
sub esp, 12
push dword ptr [Lt_0C0E]
call OUTP
add esp, 16
sub esp, 12
push 0
push 5
push offset Lt_017D
push -1
push offset Lt_0C0E
call fb_StrAssign
add esp, 32
sub esp, 12
push 0
push -1
push offset Lt_0C0A
push -1
push offset Lt_0C0E
call fb_StrConcatAssign
add esp, 32
sub esp, 12
push 0
push 3
push offset Lt_0073
push -1
push offset Lt_0C0E
call fb_StrConcatAssign
add esp, 32
sub esp, 12
push 0
push -1
push offset Lt_0C0C
push -1
push offset Lt_0C0E
call fb_StrConcatAssign
add esp, 32
sub esp, 12
push dword ptr [Lt_0C0E]
call OUTP
add esp, 16
.L_0440:
mov esp, ebp
pop ebp
.cfi_restore 5
.cfi_def_cfa 4, 4
ret
.size _EMITMOVL, .-_EMITMOVL
.cfi_endproc

.section .bss
.balign 4
	.lcomm	Lt_0C0B,12
.balign 4
	.lcomm	Lt_0C0A,12
.balign 4
	.lcomm	Lt_0C0D,12
.balign 4
	.lcomm	Lt_0C0C,12
.balign 4
	.lcomm	Lt_0C0E,12

.section .text
.balign 16
_EMITMOVI:
.type _EMITMOVI, @function
.cfi_startproc
push ebp
.cfi_def_cfa_offset 8
.cfi_offset 5, -8
mov ebp, esp
.cfi_def_cfa_register 5
sub esp, 4
push ebx
.L_0441:
mov eax, dword ptr [ebp+8]
mov ebx, dword ptr [eax+4]
and ebx, 480
je .L_0443
mov dword ptr [ebp-4], 24
jmp .L_0C0F
.L_0443:
mov ebx, dword ptr [ebp+8]
mov eax, dword ptr [ebx+4]
and eax, 31
mov dword ptr [ebp-4], eax
.L_0C0F:
mov eax, dword ptr [ebp-4]
imul eax, 28
cmp dword ptr [SYMB_DTYPETB+eax+4], 1
jne .L_0446
sub esp, 12
push 0
push 0
sub esp, 4
mov eax, dword ptr [ebp+8]
push dword ptr [eax+12]
push 8
call HGETREGNAME
add esp, 12
push eax
push -1
push offset Lt_0C10
call fb_StrAssign
add esp, 32
sub esp, 12
push 0
push 0
sub esp, 4
mov eax, dword ptr [ebp+12]
push dword ptr [eax+12]
push 8
call HGETREGNAME
add esp, 12
push eax
push -1
push offset Lt_0C11
call fb_StrAssign
add esp, 32
jmp .L_0445
.L_0446:
sub esp, 8
push -1
push 0
push 0
push -2147483648
push offset Lt_0C10
push dword ptr [ebp+8]
call HPREPOPERAND
add esp, 32
sub esp, 8
push -1
push 0
push 0
push -2147483648
push offset Lt_0C11
push dword ptr [ebp+12]
call HPREPOPERAND
add esp, 32
.L_0445:
sub esp, 12
push 0
push 5
push offset Lt_017D
push -1
push offset Lt_0C12
call fb_StrAssign
add esp, 32
sub esp, 12
push 0
push -1
push offset Lt_0C10
push -1
push offset Lt_0C12
call fb_StrConcatAssign
add esp, 32
sub esp, 12
push 0
push 3
push offset Lt_0073
push -1
push offset Lt_0C12
call fb_StrConcatAssign
add esp, 32
sub esp, 12
push 0
push -1
push offset Lt_0C11
push -1
push offset Lt_0C12
call fb_StrConcatAssign
add esp, 32
sub esp, 12
push dword ptr [Lt_0C12]
call OUTP
add esp, 16
.L_0442:
pop ebx
mov esp, ebp
pop ebp
.cfi_restore 5
.cfi_def_cfa 4, 4
ret
.size _EMITMOVI, .-_EMITMOVI
.cfi_endproc

.section .bss
.balign 4
	.lcomm	Lt_0C10,12
.balign 4
	.lcomm	Lt_0C11,12
.balign 4
	.lcomm	Lt_0C12,12

.section .text
.balign 16
_EMITMOVF:
.type _EMITMOVF, @function
.cfi_startproc
push ebp
.cfi_def_cfa_offset 8
.cfi_offset 5, -8
mov ebp, esp
.cfi_def_cfa_register 5
sub esp, 8
.L_0447:
.L_0448:
mov esp, ebp
pop ebp
.cfi_restore 5
.cfi_def_cfa 4, 4
ret
.size _EMITMOVF, .-_EMITMOVF
.cfi_endproc
.balign 16
_EMITADDL:
.type _EMITADDL, @function
.cfi_startproc
push ebp
.cfi_def_cfa_offset 8
.cfi_offset 5, -8
mov ebp, esp
.cfi_def_cfa_register 5
sub esp, 8
.L_0449:
sub esp, 4
push offset Lt_0C13
push offset Lt_0C14
push dword ptr [ebp+8]
call HPREPOPERAND64
add esp, 16
sub esp, 4
push offset Lt_0C15
push offset Lt_0C16
push dword ptr [ebp+12]
call HPREPOPERAND64
add esp, 16
sub esp, 12
push 0
push 5
push offset Lt_044B
push -1
push offset Lt_0C17
call fb_StrAssign
add esp, 32
sub esp, 12
push 0
push -1
push offset Lt_0C14
push -1
push offset Lt_0C17
call fb_StrConcatAssign
add esp, 32
sub esp, 12
push 0
push 3
push offset Lt_0073
push -1
push offset Lt_0C17
call fb_StrConcatAssign
add esp, 32
sub esp, 12
push 0
push -1
push offset Lt_0C16
push -1
push offset Lt_0C17
call fb_StrConcatAssign
add esp, 32
sub esp, 12
push dword ptr [Lt_0C17]
call OUTP
add esp, 16
sub esp, 12
push 0
push 5
push offset Lt_044C
push -1
push offset Lt_0C17
call fb_StrAssign
add esp, 32
sub esp, 12
push 0
push -1
push offset Lt_0C13
push -1
push offset Lt_0C17
call fb_StrConcatAssign
add esp, 32
sub esp, 12
push 0
push 3
push offset Lt_0073
push -1
push offset Lt_0C17
call fb_StrConcatAssign
add esp, 32
sub esp, 12
push 0
push -1
push offset Lt_0C15
push -1
push offset Lt_0C17
call fb_StrConcatAssign
add esp, 32
sub esp, 12
push dword ptr [Lt_0C17]
call OUTP
add esp, 16
.L_044A:
mov esp, ebp
pop ebp
.cfi_restore 5
.cfi_def_cfa 4, 4
ret
.size _EMITADDL, .-_EMITADDL
.cfi_endproc

.section .bss
.balign 4
	.lcomm	Lt_0C14,12
.balign 4
	.lcomm	Lt_0C13,12
.balign 4
	.lcomm	Lt_0C16,12
.balign 4
	.lcomm	Lt_0C15,12
.balign 4
	.lcomm	Lt_0C17,12

.section .text
.balign 16
_EMITADDI:
.type _EMITADDI, @function
.cfi_startproc
push ebp
.cfi_def_cfa_offset 8
.cfi_offset 5, -8
mov ebp, esp
.cfi_def_cfa_register 5
sub esp, 20
push ebx
.L_044D:
sub esp, 8
push -1
push 0
push 0
push -2147483648
push offset Lt_0C18
push dword ptr [ebp+8]
call HPREPOPERAND
add esp, 32
sub esp, 8
push -1
push 0
push 0
push -2147483648
push offset Lt_0C19
push dword ptr [ebp+12]
call HPREPOPERAND
add esp, 32
mov dword ptr [Lt_0C1A], 0
mov dword ptr [Lt_0C1B], 0
mov eax, dword ptr [ebp+12]
cmp dword ptr [eax], 0
jne .L_0450
mov eax, dword ptr [ebp+12]
mov ecx, dword ptr [eax+24]
mov ebx, dword ptr [eax+28]
mov dword ptr [ebp-8], ecx
mov dword ptr [ebp-4], ebx
cmp dword ptr [ebp-4], 0
jne .L_0453
cmp dword ptr [ebp-8], 1
jne .L_0453
.L_0C1C:
.L_0454:
mov dword ptr [Lt_0C1A], -1
jmp .L_0451
.L_0453:
cmp dword ptr [ebp-4], 4294967295
jne .L_0455
cmp dword ptr [ebp-8], 4294967295
jne .L_0455
.L_0C1D:
.L_0456:
mov dword ptr [Lt_0C1B], -1
.L_0455:
.L_0451:
.L_0450:
.L_044F:
cmp dword ptr [Lt_0C1A], 0
je .L_0458
sub esp, 12
push 0
push 5
push offset Lt_0459
push -1
push offset Lt_0C1E
call fb_StrAssign
add esp, 32
sub esp, 12
push 0
push -1
push offset Lt_0C18
push -1
push offset Lt_0C1E
call fb_StrConcatAssign
add esp, 32
sub esp, 12
push dword ptr [Lt_0C1E]
call OUTP
add esp, 16
jmp .L_0457
.L_0458:
cmp dword ptr [Lt_0C1B], 0
je .L_045A
sub esp, 12
push 0
push 5
push offset Lt_045B
push -1
push offset Lt_0C1E
call fb_StrAssign
add esp, 32
sub esp, 12
push 0
push -1
push offset Lt_0C18
push -1
push offset Lt_0C1E
call fb_StrConcatAssign
add esp, 32
sub esp, 12
push dword ptr [Lt_0C1E]
call OUTP
add esp, 16
jmp .L_0457
.L_045A:
sub esp, 12
push 0
push 5
push offset Lt_044B
push -1
push offset Lt_0C1E
call fb_StrAssign
add esp, 32
sub esp, 12
push 0
push -1
push offset Lt_0C18
push -1
push offset Lt_0C1E
call fb_StrConcatAssign
add esp, 32
sub esp, 12
push 0
push 3
push offset Lt_0073
push -1
push offset Lt_0C1E
call fb_StrConcatAssign
add esp, 32
sub esp, 12
push 0
push -1
push offset Lt_0C19
push -1
push offset Lt_0C1E
call fb_StrConcatAssign
add esp, 32
sub esp, 12
push dword ptr [Lt_0C1E]
call OUTP
add esp, 16
.L_0457:
.L_044E:
pop ebx
mov esp, ebp
pop ebp
.cfi_restore 5
.cfi_def_cfa 4, 4
ret
.size _EMITADDI, .-_EMITADDI
.cfi_endproc

.section .bss
.balign 4
	.lcomm	Lt_0C18,12
.balign 4
	.lcomm	Lt_0C19,12
.balign 4
	.lcomm	Lt_0C1A,4
.balign 4
	.lcomm	Lt_0C1B,4
.balign 4
	.lcomm	Lt_0C1E,12

.section .text
.balign 16
_EMITADDF:
.type _EMITADDF, @function
.cfi_startproc
push ebp
.cfi_def_cfa_offset 8
.cfi_offset 5, -8
mov ebp, esp
.cfi_def_cfa_register 5
sub esp, 4
push ebx
.L_045C:
sub esp, 8
push -1
push 0
push 0
push -2147483648
push offset Lt_0C20
push dword ptr [ebp+12]
call HPREPOPERAND
add esp, 32
mov eax, dword ptr [ebp+12]
cmp dword ptr [eax], 4
jne .L_045F
sub esp, 12
push 0
push 6
push offset Lt_0303
push -1
push offset Lt_0C21
call fb_StrAssign
add esp, 32
sub esp, 12
push dword ptr [Lt_0C21]
call OUTP
add esp, 16
jmp .L_045E
.L_045F:
mov eax, dword ptr [ebp+12]
mov ebx, dword ptr [eax+4]
and ebx, 480
je .L_0460
mov dword ptr [ebp-4], 24
jmp .L_0C1F
.L_0460:
mov ebx, dword ptr [ebp+12]
mov eax, dword ptr [ebx+4]
and eax, 31
mov dword ptr [ebp-4], eax
.L_0C1F:
mov eax, dword ptr [ebp-4]
imul eax, 28
cmp dword ptr [SYMB_DTYPETB+eax], 1
jne .L_0463
sub esp, 12
push 0
push 6
push offset Lt_0464
push -1
push offset Lt_0C21
call fb_StrAssign
add esp, 32
sub esp, 12
push 0
push -1
push offset Lt_0C20
push -1
push offset Lt_0C21
call fb_StrConcatAssign
add esp, 32
sub esp, 12
push dword ptr [Lt_0C21]
call OUTP
add esp, 16
jmp .L_0462
.L_0463:
sub esp, 12
push 0
push 7
push offset Lt_0465
push -1
push offset Lt_0C21
call fb_StrAssign
add esp, 32
sub esp, 12
push 0
push -1
push offset Lt_0C20
push -1
push offset Lt_0C21
call fb_StrConcatAssign
add esp, 32
sub esp, 12
push dword ptr [Lt_0C21]
call OUTP
add esp, 16
.L_0462:
.L_045E:
.L_045D:
pop ebx
mov esp, ebp
pop ebp
.cfi_restore 5
.cfi_def_cfa 4, 4
ret
.size _EMITADDF, .-_EMITADDF
.cfi_endproc

.section .bss
.balign 4
	.lcomm	Lt_0C20,12
.balign 4
	.lcomm	Lt_0C21,12

.section .text
.balign 16
_EMITSUBL:
.type _EMITSUBL, @function
.cfi_startproc
push ebp
.cfi_def_cfa_offset 8
.cfi_offset 5, -8
mov ebp, esp
.cfi_def_cfa_register 5
sub esp, 8
.L_0466:
sub esp, 4
push offset Lt_0C22
push offset Lt_0C23
push dword ptr [ebp+8]
call HPREPOPERAND64
add esp, 16
sub esp, 4
push offset Lt_0C24
push offset Lt_0C25
push dword ptr [ebp+12]
call HPREPOPERAND64
add esp, 16
sub esp, 12
push 0
push 5
push offset Lt_0468
push -1
push offset Lt_0C26
call fb_StrAssign
add esp, 32
sub esp, 12
push 0
push -1
push offset Lt_0C23
push -1
push offset Lt_0C26
call fb_StrConcatAssign
add esp, 32
sub esp, 12
push 0
push 3
push offset Lt_0073
push -1
push offset Lt_0C26
call fb_StrConcatAssign
add esp, 32
sub esp, 12
push 0
push -1
push offset Lt_0C25
push -1
push offset Lt_0C26
call fb_StrConcatAssign
add esp, 32
sub esp, 12
push dword ptr [Lt_0C26]
call OUTP
add esp, 16
sub esp, 12
push 0
push 5
push offset Lt_0469
push -1
push offset Lt_0C26
call fb_StrAssign
add esp, 32
sub esp, 12
push 0
push -1
push offset Lt_0C22
push -1
push offset Lt_0C26
call fb_StrConcatAssign
add esp, 32
sub esp, 12
push 0
push 3
push offset Lt_0073
push -1
push offset Lt_0C26
call fb_StrConcatAssign
add esp, 32
sub esp, 12
push 0
push -1
push offset Lt_0C24
push -1
push offset Lt_0C26
call fb_StrConcatAssign
add esp, 32
sub esp, 12
push dword ptr [Lt_0C26]
call OUTP
add esp, 16
.L_0467:
mov esp, ebp
pop ebp
.cfi_restore 5
.cfi_def_cfa 4, 4
ret
.size _EMITSUBL, .-_EMITSUBL
.cfi_endproc

.section .bss
.balign 4
	.lcomm	Lt_0C23,12
.balign 4
	.lcomm	Lt_0C22,12
.balign 4
	.lcomm	Lt_0C25,12
.balign 4
	.lcomm	Lt_0C24,12
.balign 4
	.lcomm	Lt_0C26,12

.section .text
.balign 16
_EMITSUBI:
.type _EMITSUBI, @function
.cfi_startproc
push ebp
.cfi_def_cfa_offset 8
.cfi_offset 5, -8
mov ebp, esp
.cfi_def_cfa_register 5
sub esp, 20
push ebx
.L_046A:
sub esp, 8
push -1
push 0
push 0
push -2147483648
push offset Lt_0C27
push dword ptr [ebp+8]
call HPREPOPERAND
add esp, 32
sub esp, 8
push -1
push 0
push 0
push -2147483648
push offset Lt_0C28
push dword ptr [ebp+12]
call HPREPOPERAND
add esp, 32
mov dword ptr [Lt_0C29], 0
mov dword ptr [Lt_0C2A], 0
mov eax, dword ptr [ebp+12]
cmp dword ptr [eax], 0
jne .L_046D
mov eax, dword ptr [ebp+12]
mov ecx, dword ptr [eax+24]
mov ebx, dword ptr [eax+28]
mov dword ptr [ebp-8], ecx
mov dword ptr [ebp-4], ebx
cmp dword ptr [ebp-4], 0
jne .L_0470
cmp dword ptr [ebp-8], 1
jne .L_0470
.L_0C2B:
.L_0471:
mov dword ptr [Lt_0C2A], -1
jmp .L_046E
.L_0470:
cmp dword ptr [ebp-4], 4294967295
jne .L_0472
cmp dword ptr [ebp-8], 4294967295
jne .L_0472
.L_0C2C:
.L_0473:
mov dword ptr [Lt_0C29], -1
.L_0472:
.L_046E:
.L_046D:
.L_046C:
cmp dword ptr [Lt_0C2A], 0
je .L_0475
sub esp, 12
push 0
push 5
push offset Lt_045B
push -1
push offset Lt_0C2D
call fb_StrAssign
add esp, 32
sub esp, 12
push 0
push -1
push offset Lt_0C27
push -1
push offset Lt_0C2D
call fb_StrConcatAssign
add esp, 32
sub esp, 12
push dword ptr [Lt_0C2D]
call OUTP
add esp, 16
jmp .L_0474
.L_0475:
cmp dword ptr [Lt_0C29], 0
je .L_0476
sub esp, 12
push 0
push 5
push offset Lt_0459
push -1
push offset Lt_0C2D
call fb_StrAssign
add esp, 32
sub esp, 12
push 0
push -1
push offset Lt_0C27
push -1
push offset Lt_0C2D
call fb_StrConcatAssign
add esp, 32
sub esp, 12
push dword ptr [Lt_0C2D]
call OUTP
add esp, 16
jmp .L_0474
.L_0476:
sub esp, 12
push 0
push 5
push offset Lt_0468
push -1
push offset Lt_0C2D
call fb_StrAssign
add esp, 32
sub esp, 12
push 0
push -1
push offset Lt_0C27
push -1
push offset Lt_0C2D
call fb_StrConcatAssign
add esp, 32
sub esp, 12
push 0
push 3
push offset Lt_0073
push -1
push offset Lt_0C2D
call fb_StrConcatAssign
add esp, 32
sub esp, 12
push 0
push -1
push offset Lt_0C28
push -1
push offset Lt_0C2D
call fb_StrConcatAssign
add esp, 32
sub esp, 12
push dword ptr [Lt_0C2D]
call OUTP
add esp, 16
.L_0474:
.L_046B:
pop ebx
mov esp, ebp
pop ebp
.cfi_restore 5
.cfi_def_cfa 4, 4
ret
.size _EMITSUBI, .-_EMITSUBI
.cfi_endproc

.section .bss
.balign 4
	.lcomm	Lt_0C27,12
.balign 4
	.lcomm	Lt_0C28,12
.balign 4
	.lcomm	Lt_0C29,4
.balign 4
	.lcomm	Lt_0C2A,4
.balign 4
	.lcomm	Lt_0C2D,12

.section .text
.balign 16
_EMITSUBF:
.type _EMITSUBF, @function
.cfi_startproc
push ebp
.cfi_def_cfa_offset 8
.cfi_offset 5, -8
mov ebp, esp
.cfi_def_cfa_register 5
sub esp, 4
push ebx
.L_0477:
sub esp, 8
push -1
push 0
push 0
push -2147483648
push offset Lt_0C2F
push dword ptr [ebp+12]
call HPREPOPERAND
add esp, 32
mov eax, dword ptr [ebp+12]
cmp dword ptr [eax], 4
jne .L_047A
sub esp, 12
push offset Lt_047B
call OUTP
add esp, 16
jmp .L_0479
.L_047A:
mov eax, dword ptr [ebp+12]
mov ebx, dword ptr [eax+4]
and ebx, 480
je .L_047C
mov dword ptr [ebp-4], 24
jmp .L_0C2E
.L_047C:
mov ebx, dword ptr [ebp+12]
mov eax, dword ptr [ebx+4]
and eax, 31
mov dword ptr [ebp-4], eax
.L_0C2E:
mov eax, dword ptr [ebp-4]
imul eax, 28
cmp dword ptr [SYMB_DTYPETB+eax], 1
jne .L_047F
sub esp, 12
push 0
push 6
push offset Lt_0480
push -1
push offset Lt_0C30
call fb_StrAssign
add esp, 32
sub esp, 12
push 0
push -1
push offset Lt_0C2F
push -1
push offset Lt_0C30
call fb_StrConcatAssign
add esp, 32
sub esp, 12
push dword ptr [Lt_0C30]
call OUTP
add esp, 16
jmp .L_047E
.L_047F:
sub esp, 12
push 0
push 7
push offset Lt_0481
push -1
push offset Lt_0C30
call fb_StrAssign
add esp, 32
sub esp, 12
push 0
push -1
push offset Lt_0C2F
push -1
push offset Lt_0C30
call fb_StrConcatAssign
add esp, 32
sub esp, 12
push dword ptr [Lt_0C30]
call OUTP
add esp, 16
.L_047E:
.L_0479:
.L_0478:
pop ebx
mov esp, ebp
pop ebp
.cfi_restore 5
.cfi_def_cfa 4, 4
ret
.size _EMITSUBF, .-_EMITSUBF
.cfi_endproc

.section .bss
.balign 4
	.lcomm	Lt_0C2F,12
.balign 4
	.lcomm	Lt_0C31,4
.balign 4
	.lcomm	Lt_0C32,4
.balign 4
	.lcomm	Lt_0C30,12

.section .text
.balign 16
_EMITMULL:
.type _EMITMULL, @function
.cfi_startproc
push ebp
.cfi_def_cfa_offset 8
.cfi_offset 5, -8
mov ebp, esp
.cfi_def_cfa_register 5
sub esp, 264
.L_0482:
sub esp, 4
push offset Lt_0C33
push offset Lt_0C34
push dword ptr [ebp+8]
call HPREPOPERAND64
add esp, 16
sub esp, 4
push offset Lt_0C35
push offset Lt_0C36
push dword ptr [ebp+12]
call HPREPOPERAND64
add esp, 16
sub esp, 8
push 5
push 0
call HISREGFREE
add esp, 16
mov dword ptr [Lt_0C37], eax
sub esp, 8
push 0
push 0
call HISREGFREE
add esp, 16
mov dword ptr [Lt_0C38], eax
sub esp, 8
push 5
push dword ptr [ebp+8]
call HISREGINVREG
add esp, 16
mov dword ptr [Lt_0C39], eax
sub esp, 8
push 0
push dword ptr [ebp+8]
call HISREGINVREG
add esp, 16
mov dword ptr [Lt_0C3A], eax
sub esp, 12
push dword ptr [Lt_0C35]
call HPUSH
add esp, 16
sub esp, 12
push dword ptr [Lt_0C36]
call HPUSH
add esp, 16
sub esp, 12
push dword ptr [Lt_0C33]
call HPUSH
add esp, 16
sub esp, 12
push dword ptr [Lt_0C34]
call HPUSH
add esp, 16
mov dword ptr [Lt_0C3B], 0
cmp dword ptr [Lt_0C3A], 0
je .L_0485
mov eax, dword ptr [ebp+8]
cmp dword ptr [eax], 4
je .L_0487
add dword ptr [Lt_0C3B], 4
sub esp, 12
push offset Lt_0082
call HPUSH
add esp, 16
.L_0487:
.L_0486:
jmp .L_0484
.L_0485:
cmp dword ptr [Lt_0C38], 0
jne .L_0489
add dword ptr [Lt_0C3B], 4
sub esp, 12
push offset Lt_0082
call HPUSH
add esp, 16
.L_0489:
.L_0488:
.L_0484:
cmp dword ptr [Lt_0C39], 0
je .L_048B
mov eax, dword ptr [ebp+8]
cmp dword ptr [eax], 4
je .L_048D
add dword ptr [Lt_0C3B], 4
sub esp, 12
push offset Lt_0087
call HPUSH
add esp, 16
.L_048D:
.L_048C:
jmp .L_048A
.L_048B:
cmp dword ptr [Lt_0C37], 0
jne .L_048F
add dword ptr [Lt_0C3B], 4
sub esp, 12
push offset Lt_0087
call HPUSH
add esp, 16
.L_048F:
.L_048E:
.L_048A:
sub esp, 12
mov dword ptr [ebp-36], 0
mov dword ptr [ebp-32], 0
mov dword ptr [ebp-28], 0
push 0
push -1
sub esp, 8
push 2
push offset Lt_0144
push -1
sub esp, 4
push -1
sub esp, 12
push dword ptr [Lt_0C3B]
call fb_IntToStr
add esp, 16
push eax
push 15
push offset Lt_0490
mov dword ptr [ebp-12], 0
mov dword ptr [ebp-8], 0
mov dword ptr [ebp-4], 0
lea eax, [ebp-12]
push eax
call fb_StrConcat
add esp, 24
push eax
mov dword ptr [ebp-24], 0
mov dword ptr [ebp-20], 0
mov dword ptr [ebp-16], 0
lea eax, [ebp-24]
push eax
call fb_StrConcat
add esp, 28
push eax
push -1
lea eax, [ebp-36]
push eax
call fb_StrAssign
add esp, 20
push dword ptr [ebp-36]
call OUTP
add esp, 16
sub esp, 12
lea eax, [ebp-36]
push eax
call fb_StrDelete
add esp, 16
sub esp, 12
mov dword ptr [ebp-72], 0
mov dword ptr [ebp-68], 0
mov dword ptr [ebp-64], 0
push 0
push -1
sub esp, 8
push 2
push offset Lt_0144
push -1
sub esp, 4
push -1
sub esp, 12
mov eax, dword ptr [Lt_0C3B]
add eax, 8
push eax
call fb_IntToStr
add esp, 16
push eax
push 20
push offset Lt_0494
mov dword ptr [ebp-48], 0
mov dword ptr [ebp-44], 0
mov dword ptr [ebp-40], 0
lea eax, [ebp-48]
push eax
call fb_StrConcat
add esp, 24
push eax
mov dword ptr [ebp-60], 0
mov dword ptr [ebp-56], 0
mov dword ptr [ebp-52], 0
lea eax, [ebp-60]
push eax
call fb_StrConcat
add esp, 28
push eax
push -1
lea eax, [ebp-72]
push eax
call fb_StrAssign
add esp, 20
push dword ptr [ebp-72]
call OUTP
add esp, 16
sub esp, 12
lea eax, [ebp-72]
push eax
call fb_StrDelete
add esp, 16
sub esp, 12
mov dword ptr [ebp-108], 0
mov dword ptr [ebp-104], 0
mov dword ptr [ebp-100], 0
push 0
push -1
sub esp, 8
push 2
push offset Lt_0144
push -1
sub esp, 4
push -1
sub esp, 12
push dword ptr [Lt_0C3B]
call fb_IntToStr
add esp, 16
push eax
push 16
push offset Lt_0498
mov dword ptr [ebp-84], 0
mov dword ptr [ebp-80], 0
mov dword ptr [ebp-76], 0
lea eax, [ebp-84]
push eax
call fb_StrConcat
add esp, 24
push eax
mov dword ptr [ebp-96], 0
mov dword ptr [ebp-92], 0
mov dword ptr [ebp-88], 0
lea eax, [ebp-96]
push eax
call fb_StrConcat
add esp, 28
push eax
push -1
lea eax, [ebp-108]
push eax
call fb_StrAssign
add esp, 20
push dword ptr [ebp-108]
call OUTP
add esp, 16
sub esp, 12
lea eax, [ebp-108]
push eax
call fb_StrDelete
add esp, 16
sub esp, 12
mov dword ptr [ebp-144], 0
mov dword ptr [ebp-140], 0
mov dword ptr [ebp-136], 0
push 0
push -1
sub esp, 8
push 2
push offset Lt_0144
push -1
sub esp, 4
push -1
sub esp, 12
mov eax, dword ptr [Lt_0C3B]
add eax, 12
push eax
call fb_IntToStr
add esp, 16
push eax
push 16
push offset Lt_049C
mov dword ptr [ebp-120], 0
mov dword ptr [ebp-116], 0
mov dword ptr [ebp-112], 0
lea eax, [ebp-120]
push eax
call fb_StrConcat
add esp, 24
push eax
mov dword ptr [ebp-132], 0
mov dword ptr [ebp-128], 0
mov dword ptr [ebp-124], 0
lea eax, [ebp-132]
push eax
call fb_StrConcat
add esp, 28
push eax
push -1
lea eax, [ebp-144]
push eax
call fb_StrAssign
add esp, 20
push dword ptr [ebp-144]
call OUTP
add esp, 16
sub esp, 12
lea eax, [ebp-144]
push eax
call fb_StrDelete
add esp, 16
sub esp, 12
push offset Lt_04A0
call OUTP
add esp, 16
sub esp, 12
mov dword ptr [ebp-180], 0
mov dword ptr [ebp-176], 0
mov dword ptr [ebp-172], 0
push 0
push -1
sub esp, 8
push 2
push offset Lt_0144
push -1
sub esp, 4
push -1
sub esp, 12
mov eax, dword ptr [Lt_0C3B]
add eax, 4
push eax
call fb_IntToStr
add esp, 16
push eax
push 15
push offset Lt_04A1
mov dword ptr [ebp-156], 0
mov dword ptr [ebp-152], 0
mov dword ptr [ebp-148], 0
lea eax, [ebp-156]
push eax
call fb_StrConcat
add esp, 24
push eax
mov dword ptr [ebp-168], 0
mov dword ptr [ebp-164], 0
mov dword ptr [ebp-160], 0
lea eax, [ebp-168]
push eax
call fb_StrConcat
add esp, 28
push eax
push -1
lea eax, [ebp-180]
push eax
call fb_StrAssign
add esp, 20
push dword ptr [ebp-180]
call OUTP
add esp, 16
sub esp, 12
lea eax, [ebp-180]
push eax
call fb_StrDelete
add esp, 16
sub esp, 12
mov dword ptr [ebp-216], 0
mov dword ptr [ebp-212], 0
mov dword ptr [ebp-208], 0
push 0
push -1
sub esp, 8
push 2
push offset Lt_0144
push -1
sub esp, 4
push -1
sub esp, 12
mov eax, dword ptr [Lt_0C3B]
add eax, 8
push eax
call fb_IntToStr
add esp, 16
push eax
push 16
push offset Lt_04A5
mov dword ptr [ebp-192], 0
mov dword ptr [ebp-188], 0
mov dword ptr [ebp-184], 0
lea eax, [ebp-192]
push eax
call fb_StrConcat
add esp, 24
push eax
mov dword ptr [ebp-204], 0
mov dword ptr [ebp-200], 0
mov dword ptr [ebp-196], 0
lea eax, [ebp-204]
push eax
call fb_StrConcat
add esp, 28
push eax
push -1
lea eax, [ebp-216]
push eax
call fb_StrAssign
add esp, 20
push dword ptr [ebp-216]
call OUTP
add esp, 16
sub esp, 12
lea eax, [ebp-216]
push eax
call fb_StrDelete
add esp, 16
sub esp, 12
push offset Lt_04A9
call OUTP
add esp, 16
sub esp, 12
mov dword ptr [ebp-252], 0
mov dword ptr [ebp-248], 0
mov dword ptr [ebp-244], 0
push 0
push -1
sub esp, 8
push 7
push offset Lt_04AB
push -1
sub esp, 4
push -1
sub esp, 12
mov eax, dword ptr [Lt_0C3B]
add eax, 4
push eax
call fb_IntToStr
add esp, 16
push eax
push 10
push offset Lt_04AA
mov dword ptr [ebp-228], 0
mov dword ptr [ebp-224], 0
mov dword ptr [ebp-220], 0
lea eax, [ebp-228]
push eax
call fb_StrConcat
add esp, 24
push eax
mov dword ptr [ebp-240], 0
mov dword ptr [ebp-236], 0
mov dword ptr [ebp-232], 0
lea eax, [ebp-240]
push eax
call fb_StrConcat
add esp, 28
push eax
push -1
lea eax, [ebp-252]
push eax
call fb_StrAssign
add esp, 20
push dword ptr [ebp-252]
call OUTP
add esp, 16
sub esp, 12
lea eax, [ebp-252]
push eax
call fb_StrDelete
add esp, 16
cmp dword ptr [Lt_0C39], 0
je .L_04B0
mov eax, dword ptr [ebp+8]
cmp dword ptr [eax], 4
je .L_04B2
sub esp, 12
push offset Lt_0087
call HPOP
add esp, 16
.L_04B2:
.L_04B1:
jmp .L_04AF
.L_04B0:
cmp dword ptr [Lt_0C37], 0
jne .L_04B4
sub esp, 12
push offset Lt_0087
call HPOP
add esp, 16
.L_04B4:
.L_04B3:
.L_04AF:
cmp dword ptr [Lt_0C3A], 0
je .L_04B6
mov eax, dword ptr [ebp+8]
cmp dword ptr [eax], 4
je .L_04B8
sub esp, 12
push offset Lt_0082
call HPOP
add esp, 16
.L_04B8:
.L_04B7:
jmp .L_04B5
.L_04B6:
cmp dword ptr [Lt_0C38], 0
jne .L_04BA
sub esp, 12
push offset Lt_0082
call HPOP
add esp, 16
.L_04BA:
.L_04B9:
.L_04B5:
sub esp, 12
push dword ptr [Lt_0C34]
call HPOP
add esp, 16
sub esp, 12
push dword ptr [Lt_0C33]
call HPOP
add esp, 16
sub esp, 12
push offset Lt_036A
call OUTP
add esp, 16
.L_0483:
mov esp, ebp
pop ebp
.cfi_restore 5
.cfi_def_cfa 4, 4
ret
.size _EMITMULL, .-_EMITMULL
.cfi_endproc

.section .bss
.balign 4
	.lcomm	Lt_0C34,12
.balign 4
	.lcomm	Lt_0C33,12
.balign 4
	.lcomm	Lt_0C36,12
.balign 4
	.lcomm	Lt_0C35,12
.balign 4
	.lcomm	Lt_0C37,4
.balign 4
	.lcomm	Lt_0C38,4
.balign 4
	.lcomm	Lt_0C39,4
.balign 4
	.lcomm	Lt_0C3A,4
.balign 4
	.lcomm	Lt_0C3B,4

.section .text
.balign 16
_EMITMULI:
.type _EMITMULI, @function
.cfi_startproc
push ebp
.cfi_def_cfa_offset 8
.cfi_offset 5, -8
mov ebp, esp
.cfi_def_cfa_register 5
sub esp, 8
.L_04BB:
sub esp, 8
push -1
push 0
push 0
push -2147483648
push offset Lt_0C3C
push dword ptr [ebp+8]
call HPREPOPERAND
add esp, 32
sub esp, 8
push -1
push 0
push 0
push -2147483648
push offset Lt_0C3D
push dword ptr [ebp+12]
call HPREPOPERAND
add esp, 32
mov eax, dword ptr [ebp+8]
cmp dword ptr [eax], 4
je .L_04BE
sub esp, 8
push 0
push dword ptr [ebp+12]
call HFINDREGNOTINVREG
add esp, 16
mov dword ptr [Lt_0C3E], eax
sub esp, 12
push 0
push 0
sub esp, 4
push dword ptr [Lt_0C3E]
mov eax, dword ptr [ebp+12]
push dword ptr [eax+4]
call HGETREGNAME
add esp, 12
push eax
push -1
push offset Lt_0C3F
call fb_StrAssign
add esp, 32
sub esp, 8
push dword ptr [Lt_0C3E]
push 0
call HISREGFREE
add esp, 16
mov dword ptr [Lt_0C40], eax
cmp dword ptr [Lt_0C40], 0
jne .L_04C0
sub esp, 12
push dword ptr [Lt_0C3F]
call HPUSH
add esp, 16
.L_04C0:
.L_04BF:
sub esp, 8
push dword ptr [Lt_0C3C]
push dword ptr [Lt_0C3F]
call HMOV
add esp, 16
sub esp, 12
push 0
push 6
push offset Lt_04C1
push -1
push offset Lt_0C41
call fb_StrAssign
add esp, 32
sub esp, 12
push 0
push -1
push offset Lt_0C3F
push -1
push offset Lt_0C41
call fb_StrConcatAssign
add esp, 32
sub esp, 12
push 0
push 3
push offset Lt_0073
push -1
push offset Lt_0C41
call fb_StrConcatAssign
add esp, 32
sub esp, 12
push 0
push -1
push offset Lt_0C3D
push -1
push offset Lt_0C41
call fb_StrConcatAssign
add esp, 32
sub esp, 12
push dword ptr [Lt_0C41]
call OUTP
add esp, 16
sub esp, 8
push dword ptr [Lt_0C3F]
push dword ptr [Lt_0C3C]
call HMOV
add esp, 16
cmp dword ptr [Lt_0C40], 0
jne .L_04C3
sub esp, 12
push dword ptr [Lt_0C3F]
call HPOP
add esp, 16
.L_04C3:
.L_04C2:
jmp .L_04BD
.L_04BE:
sub esp, 12
push 0
push 6
push offset Lt_04C1
push -1
push offset Lt_0C41
call fb_StrAssign
add esp, 32
sub esp, 12
push 0
push -1
push offset Lt_0C3C
push -1
push offset Lt_0C41
call fb_StrConcatAssign
add esp, 32
sub esp, 12
push 0
push 3
push offset Lt_0073
push -1
push offset Lt_0C41
call fb_StrConcatAssign
add esp, 32
sub esp, 12
push 0
push -1
push offset Lt_0C3D
push -1
push offset Lt_0C41
call fb_StrConcatAssign
add esp, 32
sub esp, 12
push dword ptr [Lt_0C41]
call OUTP
add esp, 16
.L_04BD:
.L_04BC:
mov esp, ebp
pop ebp
.cfi_restore 5
.cfi_def_cfa 4, 4
ret
.size _EMITMULI, .-_EMITMULI
.cfi_endproc

.section .bss
.balign 4
	.lcomm	Lt_0C3E,4
.balign 4
	.lcomm	Lt_0C40,4
.balign 4
	.lcomm	Lt_0C3F,12
.balign 4
	.lcomm	Lt_0C41,12
.balign 4
	.lcomm	Lt_0C3C,12
.balign 4
	.lcomm	Lt_0C3D,12

.section .text
.balign 16
_EMITMULF:
.type _EMITMULF, @function
.cfi_startproc
push ebp
.cfi_def_cfa_offset 8
.cfi_offset 5, -8
mov ebp, esp
.cfi_def_cfa_register 5
sub esp, 4
push ebx
.L_04C4:
sub esp, 8
push -1
push 0
push 0
push -2147483648
push offset Lt_0C43
push dword ptr [ebp+12]
call HPREPOPERAND
add esp, 32
mov eax, dword ptr [ebp+12]
cmp dword ptr [eax], 4
jne .L_04C7
sub esp, 12
push offset Lt_04C8
call OUTP
add esp, 16
jmp .L_04C6
.L_04C7:
mov eax, dword ptr [ebp+12]
mov ebx, dword ptr [eax+4]
and ebx, 480
je .L_04C9
mov dword ptr [ebp-4], 24
jmp .L_0C42
.L_04C9:
mov ebx, dword ptr [ebp+12]
mov eax, dword ptr [ebx+4]
and eax, 31
mov dword ptr [ebp-4], eax
.L_0C42:
mov eax, dword ptr [ebp-4]
imul eax, 28
cmp dword ptr [SYMB_DTYPETB+eax], 1
jne .L_04CC
sub esp, 12
push 0
push 6
push offset Lt_04CD
push -1
push offset Lt_0C44
call fb_StrAssign
add esp, 32
sub esp, 12
push 0
push -1
push offset Lt_0C43
push -1
push offset Lt_0C44
call fb_StrConcatAssign
add esp, 32
sub esp, 12
push dword ptr [Lt_0C44]
call OUTP
add esp, 16
jmp .L_04CB
.L_04CC:
sub esp, 12
push 0
push 7
push offset Lt_04CE
push -1
push offset Lt_0C44
call fb_StrAssign
add esp, 32
sub esp, 12
push 0
push -1
push offset Lt_0C43
push -1
push offset Lt_0C44
call fb_StrConcatAssign
add esp, 32
sub esp, 12
push dword ptr [Lt_0C44]
call OUTP
add esp, 16
.L_04CB:
.L_04C6:
.L_04C5:
pop ebx
mov esp, ebp
pop ebp
.cfi_restore 5
.cfi_def_cfa 4, 4
ret
.size _EMITMULF, .-_EMITMULF
.cfi_endproc

.section .bss
.balign 4
	.lcomm	Lt_0C43,12
.balign 4
	.lcomm	Lt_0C44,12

.section .text
.balign 16
_EMITDIVF:
.type _EMITDIVF, @function
.cfi_startproc
push ebp
.cfi_def_cfa_offset 8
.cfi_offset 5, -8
mov ebp, esp
.cfi_def_cfa_register 5
sub esp, 4
push ebx
.L_04CF:
sub esp, 8
push -1
push 0
push 0
push -2147483648
push offset Lt_0C46
push dword ptr [ebp+12]
call HPREPOPERAND
add esp, 32
mov eax, dword ptr [ebp+12]
cmp dword ptr [eax], 4
jne .L_04D2
sub esp, 12
push offset Lt_04D3
call OUTP
add esp, 16
jmp .L_04D1
.L_04D2:
mov eax, dword ptr [ebp+12]
mov ebx, dword ptr [eax+4]
and ebx, 480
je .L_04D4
mov dword ptr [ebp-4], 24
jmp .L_0C45
.L_04D4:
mov ebx, dword ptr [ebp+12]
mov eax, dword ptr [ebx+4]
and eax, 31
mov dword ptr [ebp-4], eax
.L_0C45:
mov eax, dword ptr [ebp-4]
imul eax, 28
cmp dword ptr [SYMB_DTYPETB+eax], 1
jne .L_04D7
sub esp, 12
push 0
push 6
push offset Lt_04D8
push -1
push offset Lt_0C47
call fb_StrAssign
add esp, 32
sub esp, 12
push 0
push -1
push offset Lt_0C46
push -1
push offset Lt_0C47
call fb_StrConcatAssign
add esp, 32
sub esp, 12
push dword ptr [Lt_0C47]
call OUTP
add esp, 16
jmp .L_04D6
.L_04D7:
sub esp, 12
push 0
push 7
push offset Lt_04D9
push -1
push offset Lt_0C47
call fb_StrAssign
add esp, 32
sub esp, 12
push 0
push -1
push offset Lt_0C46
push -1
push offset Lt_0C47
call fb_StrConcatAssign
add esp, 32
sub esp, 12
push dword ptr [Lt_0C47]
call OUTP
add esp, 16
.L_04D6:
.L_04D1:
.L_04D0:
pop ebx
mov esp, ebp
pop ebp
.cfi_restore 5
.cfi_def_cfa 4, 4
ret
.size _EMITDIVF, .-_EMITDIVF
.cfi_endproc

.section .bss
.balign 4
	.lcomm	Lt_0C46,12
.balign 4
	.lcomm	Lt_0C47,12

.section .text
.balign 16
_EMITDIVI:
.type _EMITDIVI, @function
.cfi_startproc
push ebp
.cfi_def_cfa_offset 8
.cfi_offset 5, -8
mov ebp, esp
.cfi_def_cfa_register 5
sub esp, 20
push ebx
.L_04DA:
sub esp, 8
push -1
push 0
push 0
push -2147483648
push offset Lt_0C4B
push dword ptr [ebp+8]
call HPREPOPERAND
add esp, 32
sub esp, 8
push -1
push 0
push 0
push -2147483648
push offset Lt_0C4C
push dword ptr [ebp+12]
call HPREPOPERAND
add esp, 32
mov eax, dword ptr [ebp+8]
mov ebx, dword ptr [eax+4]
and ebx, 480
je .L_04DC
mov dword ptr [ebp-4], 24
jmp .L_0C48
.L_04DC:
mov ebx, dword ptr [ebp+8]
mov eax, dword ptr [ebx+4]
and eax, 31
mov dword ptr [ebp-4], eax
.L_0C48:
mov eax, dword ptr [ebp-4]
imul eax, 28
cmp dword ptr [SYMB_DTYPETB+eax+4], 4
jne .L_04DF
sub esp, 12
push 0
push 4
push offset Lt_0087
push -1
push offset Lt_0C4D
call fb_StrAssign
add esp, 32
sub esp, 12
push 0
push 4
push offset Lt_0085
push -1
push offset Lt_0C4E
call fb_StrAssign
add esp, 32
sub esp, 12
push 0
push 4
push offset Lt_0082
push -1
push offset Lt_0C4F
call fb_StrAssign
add esp, 32
jmp .L_04DE
.L_04DF:
sub esp, 12
push 0
push 3
push offset Lt_0081
push -1
push offset Lt_0C4D
call fb_StrAssign
add esp, 32
sub esp, 12
push 0
push 3
push offset Lt_007F
push -1
push offset Lt_0C4E
call fb_StrAssign
add esp, 32
sub esp, 12
push 0
push 3
push offset Lt_007E
push -1
push offset Lt_0C4F
call fb_StrAssign
add esp, 32
.L_04DE:
mov dword ptr [Lt_0C50], 0
sub esp, 8
push 5
push 0
call HISREGFREE
add esp, 16
mov dword ptr [Lt_0C51], eax
sub esp, 8
push 3
push 0
call HISREGFREE
add esp, 16
mov dword ptr [Lt_0C52], eax
sub esp, 8
push 0
push 0
call HISREGFREE
add esp, 16
mov dword ptr [Lt_0C53], eax
sub esp, 8
push 5
push dword ptr [ebp+12]
call HISREGINVREG
add esp, 16
mov dword ptr [Lt_0C54], eax
sub esp, 8
push 0
push dword ptr [ebp+12]
call HISREGINVREG
add esp, 16
mov dword ptr [Lt_0C55], eax
sub esp, 8
push 5
push dword ptr [ebp+8]
call HISREGINVREG
add esp, 16
mov dword ptr [Lt_0C56], eax
sub esp, 8
push 0
push dword ptr [ebp+8]
call HISREGINVREG
add esp, 16
mov dword ptr [Lt_0C57], eax
sub esp, 8
push 3
push dword ptr [ebp+8]
call HISREGINVREG
add esp, 16
mov dword ptr [Lt_0C58], eax
mov eax, dword ptr [Lt_0C55]
or eax, dword ptr [Lt_0C54]
mov ebx, dword ptr [ebp+12]
mov ecx, dword ptr [ebx]
test ecx, ecx
sete cl
shr ecx, 1
sbb ecx, ecx
or eax, ecx
je .L_04E1
mov dword ptr [Lt_0C50], -1
cmp dword ptr [Lt_0C58], 0
je .L_04E3
sub esp, 12
push offset Lt_0085
call HPUSH
add esp, 16
mov ecx, dword ptr [ebp+8]
cmp dword ptr [ecx], 4
je .L_04E5
sub esp, 8
push -1
push 0
push 0
push 8
push offset Lt_0C5A
push dword ptr [ebp+8]
call HPREPOPERAND
add esp, 32
sub esp, 12
push dword ptr [Lt_0C5A]
call HPUSH
add esp, 16
.L_04E5:
.L_04E4:
jmp .L_04E2
.L_04E3:
cmp dword ptr [Lt_0C52], 0
jne .L_04E6
sub esp, 12
push offset Lt_0085
call HPUSH
add esp, 16
.L_04E6:
.L_04E2:
sub esp, 8
push dword ptr [Lt_0C4C]
push dword ptr [Lt_0C4E]
call HMOV
add esp, 16
sub esp, 12
push 0
push -1
push offset Lt_0C4E
push -1
push offset Lt_0C4C
call fb_StrAssign
add esp, 32
.L_04E1:
.L_04E0:
cmp dword ptr [Lt_0C56], 0
jne .L_04E8
mov ecx, dword ptr [Lt_0C50]
and ecx, dword ptr [Lt_0C58]
je .L_04EA
cmp dword ptr [Lt_0C51], 0
jne .L_04EC
sub esp, 12
push offset Lt_04ED
call OUTP
add esp, 16
jmp .L_04EB
.L_04EC:
sub esp, 12
push offset Lt_0087
call HPOP
add esp, 16
.L_04EB:
jmp .L_04E9
.L_04EA:
cmp dword ptr [Lt_0C51], 0
jne .L_04EF
sub esp, 12
push offset Lt_0087
call HPUSH
add esp, 16
.L_04EF:
.L_04EE:
sub esp, 8
push dword ptr [Lt_0C4B]
push dword ptr [Lt_0C4D]
call HMOV
add esp, 16
.L_04E9:
jmp .L_04E7
.L_04E8:
mov ecx, dword ptr [ebp+8]
cmp dword ptr [ecx], 4
je .L_04F1
sub esp, 12
push offset Lt_0087
call HPUSH
add esp, 16
sub esp, 8
push dword ptr [Lt_0C4B]
push dword ptr [Lt_0C4D]
call HMOV
add esp, 16
.L_04F1:
.L_04F0:
.L_04E7:
cmp dword ptr [Lt_0C57], 0
je .L_04F3
mov ecx, dword ptr [ebp+8]
cmp dword ptr [ecx], 4
je .L_04F5
sub esp, 12
push offset Lt_0082
call HPUSH
add esp, 16
.L_04F5:
.L_04F4:
jmp .L_04F2
.L_04F3:
cmp dword ptr [Lt_0C53], 0
jne .L_04F6
sub esp, 12
push offset Lt_0082
call HPUSH
add esp, 16
.L_04F6:
.L_04F2:
mov ecx, dword ptr [ebp+8]
mov eax, dword ptr [ecx+4]
and eax, 480
je .L_04F7
mov dword ptr [ebp-8], 24
jmp .L_0C49
.L_04F7:
mov eax, dword ptr [ebp+8]
mov ecx, dword ptr [eax+4]
and ecx, 31
mov dword ptr [ebp-8], ecx
.L_0C49:
mov ecx, dword ptr [ebp-8]
imul ecx, 28
cmp dword ptr [SYMB_DTYPETB+ecx+8], 0
je .L_04FA
mov ecx, dword ptr [ebp+8]
mov eax, dword ptr [ecx+4]
and eax, 480
je .L_04FB
mov dword ptr [ebp-12], 24
jmp .L_0C4A
.L_04FB:
mov eax, dword ptr [ebp+8]
mov ecx, dword ptr [eax+4]
and ecx, 31
mov dword ptr [ebp-12], ecx
.L_0C4A:
mov ecx, dword ptr [ebp-12]
imul ecx, 28
cmp dword ptr [SYMB_DTYPETB+ecx+4], 4
jne .L_04FE
sub esp, 12
push offset Lt_04FF
call OUTP
add esp, 16
jmp .L_04FD
.L_04FE:
sub esp, 12
push offset Lt_0500
call OUTP
add esp, 16
.L_04FD:
sub esp, 12
push 0
push 6
push offset Lt_0501
push -1
push offset Lt_0C5A
call fb_StrAssign
add esp, 32
sub esp, 12
push 0
push -1
push offset Lt_0C4C
push -1
push offset Lt_0C5A
call fb_StrConcatAssign
add esp, 32
sub esp, 12
push dword ptr [Lt_0C5A]
call OUTP
add esp, 16
jmp .L_04F9
.L_04FA:
sub esp, 12
push 0
push 5
push offset Lt_03D2
push -1
push offset Lt_0C5A
call fb_StrAssign
add esp, 32
sub esp, 12
push 0
push -1
push offset Lt_0C4F
push -1
push offset Lt_0C5A
call fb_StrConcatAssign
add esp, 32
sub esp, 12
push 0
push 3
push offset Lt_0073
push -1
push offset Lt_0C5A
call fb_StrConcatAssign
add esp, 32
sub esp, 12
push 0
push -1
push offset Lt_0C4F
push -1
push offset Lt_0C5A
call fb_StrConcatAssign
add esp, 32
sub esp, 12
push dword ptr [Lt_0C5A]
call OUTP
add esp, 16
sub esp, 12
push 0
push 5
push offset Lt_0502
push -1
push offset Lt_0C5A
call fb_StrAssign
add esp, 32
sub esp, 12
push 0
push -1
push offset Lt_0C4C
push -1
push offset Lt_0C5A
call fb_StrConcatAssign
add esp, 32
sub esp, 12
push dword ptr [Lt_0C5A]
call OUTP
add esp, 16
.L_04F9:
cmp dword ptr [Lt_0C57], 0
je .L_0504
mov ecx, dword ptr [ebp+8]
cmp dword ptr [ecx], 4
je .L_0506
sub esp, 12
push offset Lt_0082
call HPOP
add esp, 16
.L_0506:
.L_0505:
jmp .L_0503
.L_0504:
cmp dword ptr [Lt_0C53], 0
jne .L_0507
sub esp, 12
push offset Lt_0082
call HPOP
add esp, 16
.L_0507:
.L_0503:
cmp dword ptr [Lt_0C56], 0
jne .L_0509
mov ecx, dword ptr [Lt_0C50]
and ecx, dword ptr [Lt_0C58]
je .L_050B
mov ecx, dword ptr [ebp+8]
cmp dword ptr [ecx], 4
je .L_050D
cmp dword ptr [Lt_0C51], 0
jne .L_050F
sub esp, 12
push offset Lt_0085
call HPOP
add esp, 16
sub esp, 12
push offset Lt_0510
call OUTP
add esp, 16
jmp .L_050E
.L_050F:
sub esp, 12
push offset Lt_0085
call HPOP
add esp, 16
.L_050E:
.L_050D:
.L_050C:
.L_050B:
.L_050A:
sub esp, 8
push dword ptr [Lt_0C4D]
push dword ptr [Lt_0C4B]
call HMOV
add esp, 16
cmp dword ptr [Lt_0C51], 0
jne .L_0512
sub esp, 12
push offset Lt_0087
call HPOP
add esp, 16
.L_0512:
.L_0511:
jmp .L_0508
.L_0509:
mov ecx, dword ptr [ebp+8]
cmp dword ptr [ecx], 4
je .L_0514
mov ecx, dword ptr [Lt_0C52]
test ecx, ecx
sete cl
shr ecx, 1
sbb ecx, ecx
mov eax, dword ptr [Lt_0C50]
test eax, eax
sete al
shr eax, 1
sbb eax, eax
and ecx, eax
je .L_0516
sub esp, 12
push offset Lt_0510
call OUTP
add esp, 16
sub esp, 12
push offset Lt_0517
call OUTP
add esp, 16
jmp .L_0515
.L_0516:
sub esp, 8
push offset Lt_0087
push offset Lt_0085
call HMOV
add esp, 16
sub esp, 12
push offset Lt_0087
call HPOP
add esp, 16
.L_0515:
sub esp, 8
push dword ptr [Lt_0C4E]
push dword ptr [Lt_0C4B]
call HMOV
add esp, 16
mov eax, dword ptr [Lt_0C52]
test eax, eax
sete al
shr eax, 1
sbb eax, eax
mov ecx, dword ptr [Lt_0C50]
test ecx, ecx
sete cl
shr ecx, 1
sbb ecx, ecx
and eax, ecx
je .L_0519
sub esp, 12
push offset Lt_0085
call HPOP
add esp, 16
.L_0519:
.L_0518:
.L_0514:
.L_0513:
.L_0508:
cmp dword ptr [Lt_0C50], 0
je .L_051B
mov ecx, dword ptr [Lt_0C52]
test ecx, ecx
sete cl
shr ecx, 1
sbb ecx, ecx
mov eax, dword ptr [Lt_0C58]
test eax, eax
sete al
shr eax, 1
sbb eax, eax
and ecx, eax
je .L_051D
sub esp, 12
push offset Lt_0085
call HPOP
add esp, 16
.L_051D:
.L_051C:
.L_051B:
.L_051A:
.L_04DB:
pop ebx
mov esp, ebp
pop ebp
.cfi_restore 5
.cfi_def_cfa 4, 4
ret
.size _EMITDIVI, .-_EMITDIVI
.cfi_endproc

.section .bss
.balign 4
	.lcomm	Lt_0C4B,12
.balign 4
	.lcomm	Lt_0C4C,12
.balign 4
	.lcomm	Lt_0C50,4
.balign 4
	.lcomm	Lt_0C51,4
.balign 4
	.lcomm	Lt_0C52,4
.balign 4
	.lcomm	Lt_0C53,4
.balign 4
	.lcomm	Lt_0C56,4
.balign 4
	.lcomm	Lt_0C58,4
.balign 4
	.lcomm	Lt_0C57,4
.balign 4
	.lcomm	Lt_0C54,4
.balign 4
	.lcomm	Lt_0C55,4
.balign 4
	.lcomm	Lt_0C4D,12
.balign 4
	.lcomm	Lt_0C4E,12
.balign 4
	.lcomm	Lt_0C4F,12
.balign 4
	.lcomm	Lt_0C5A,12

.section .text
.balign 16
_EMITMODI:
.type _EMITMODI, @function
.cfi_startproc
push ebp
.cfi_def_cfa_offset 8
.cfi_offset 5, -8
mov ebp, esp
.cfi_def_cfa_register 5
sub esp, 20
push ebx
.L_051E:
sub esp, 8
push -1
push 0
push 0
push -2147483648
push offset Lt_0C64
push dword ptr [ebp+8]
call HPREPOPERAND
add esp, 32
sub esp, 8
push -1
push 0
push 0
push -2147483648
push offset Lt_0C65
push dword ptr [ebp+12]
call HPREPOPERAND
add esp, 32
mov eax, dword ptr [ebp+8]
mov ebx, dword ptr [eax+4]
and ebx, 480
je .L_0520
mov dword ptr [ebp-4], 24
jmp .L_0C61
.L_0520:
mov ebx, dword ptr [ebp+8]
mov eax, dword ptr [ebx+4]
and eax, 31
mov dword ptr [ebp-4], eax
.L_0C61:
mov eax, dword ptr [ebp-4]
imul eax, 28
cmp dword ptr [SYMB_DTYPETB+eax+4], 4
jne .L_0523
sub esp, 12
push 0
push 4
push offset Lt_0087
push -1
push offset Lt_0C66
call fb_StrAssign
add esp, 32
sub esp, 12
push 0
push 4
push offset Lt_0085
push -1
push offset Lt_0C67
call fb_StrAssign
add esp, 32
sub esp, 12
push 0
push 4
push offset Lt_0082
push -1
push offset Lt_0C68
call fb_StrAssign
add esp, 32
jmp .L_0522
.L_0523:
sub esp, 12
push 0
push 3
push offset Lt_0081
push -1
push offset Lt_0C66
call fb_StrAssign
add esp, 32
sub esp, 12
push 0
push 3
push offset Lt_007F
push -1
push offset Lt_0C67
call fb_StrAssign
add esp, 32
sub esp, 12
push 0
push 3
push offset Lt_007E
push -1
push offset Lt_0C68
call fb_StrAssign
add esp, 32
.L_0522:
mov dword ptr [Lt_0C69], 0
sub esp, 8
push 5
push 0
call HISREGFREE
add esp, 16
mov dword ptr [Lt_0C6A], eax
sub esp, 8
push 3
push 0
call HISREGFREE
add esp, 16
mov dword ptr [Lt_0C6B], eax
sub esp, 8
push 0
push 0
call HISREGFREE
add esp, 16
mov dword ptr [Lt_0C6C], eax
sub esp, 8
push 5
push dword ptr [ebp+12]
call HISREGINVREG
add esp, 16
mov dword ptr [Lt_0C6D], eax
sub esp, 8
push 0
push dword ptr [ebp+12]
call HISREGINVREG
add esp, 16
mov dword ptr [Lt_0C6E], eax
sub esp, 8
push 5
push dword ptr [ebp+8]
call HISREGINVREG
add esp, 16
mov dword ptr [Lt_0C6F], eax
sub esp, 8
push 0
push dword ptr [ebp+8]
call HISREGINVREG
add esp, 16
mov dword ptr [Lt_0C70], eax
sub esp, 8
push 3
push dword ptr [ebp+8]
call HISREGINVREG
add esp, 16
mov dword ptr [Lt_0C71], eax
mov eax, dword ptr [Lt_0C6E]
or eax, dword ptr [Lt_0C6D]
mov ebx, dword ptr [ebp+12]
mov ecx, dword ptr [ebx]
test ecx, ecx
sete cl
shr ecx, 1
sbb ecx, ecx
or eax, ecx
je .L_0525
mov dword ptr [Lt_0C69], -1
cmp dword ptr [Lt_0C71], 0
je .L_0527
sub esp, 12
push offset Lt_0085
call HPUSH
add esp, 16
mov ecx, dword ptr [ebp+8]
cmp dword ptr [ecx], 4
je .L_0529
sub esp, 8
push -1
push 0
push 0
push 8
push offset Lt_0C73
push dword ptr [ebp+8]
call HPREPOPERAND
add esp, 32
sub esp, 12
push dword ptr [Lt_0C73]
call HPUSH
add esp, 16
.L_0529:
.L_0528:
jmp .L_0526
.L_0527:
cmp dword ptr [Lt_0C6B], 0
jne .L_052A
sub esp, 12
push offset Lt_0085
call HPUSH
add esp, 16
.L_052A:
.L_0526:
sub esp, 8
push dword ptr [Lt_0C65]
push dword ptr [Lt_0C67]
call HMOV
add esp, 16
sub esp, 12
push 0
push -1
push offset Lt_0C67
push -1
push offset Lt_0C65
call fb_StrAssign
add esp, 32
.L_0525:
.L_0524:
cmp dword ptr [Lt_0C6F], 0
jne .L_052C
mov ecx, dword ptr [Lt_0C69]
and ecx, dword ptr [Lt_0C71]
je .L_052E
cmp dword ptr [Lt_0C6A], 0
jne .L_0530
sub esp, 12
push offset Lt_04ED
call OUTP
add esp, 16
jmp .L_052F
.L_0530:
sub esp, 12
push offset Lt_0087
call HPOP
add esp, 16
.L_052F:
jmp .L_052D
.L_052E:
cmp dword ptr [Lt_0C6A], 0
jne .L_0532
sub esp, 12
push offset Lt_0087
call HPUSH
add esp, 16
.L_0532:
.L_0531:
sub esp, 8
push dword ptr [Lt_0C64]
push dword ptr [Lt_0C66]
call HMOV
add esp, 16
.L_052D:
jmp .L_052B
.L_052C:
mov ecx, dword ptr [ebp+8]
cmp dword ptr [ecx], 4
je .L_0534
sub esp, 12
push offset Lt_0087
call HPUSH
add esp, 16
sub esp, 8
push dword ptr [Lt_0C64]
push dword ptr [Lt_0C66]
call HMOV
add esp, 16
.L_0534:
.L_0533:
.L_052B:
cmp dword ptr [Lt_0C70], 0
je .L_0536
mov ecx, dword ptr [ebp+8]
cmp dword ptr [ecx], 4
je .L_0538
sub esp, 12
push offset Lt_0082
call HPUSH
add esp, 16
.L_0538:
.L_0537:
jmp .L_0535
.L_0536:
cmp dword ptr [Lt_0C6C], 0
jne .L_0539
sub esp, 12
push offset Lt_0082
call HPUSH
add esp, 16
.L_0539:
.L_0535:
mov ecx, dword ptr [ebp+8]
mov eax, dword ptr [ecx+4]
and eax, 480
je .L_053A
mov dword ptr [ebp-8], 24
jmp .L_0C62
.L_053A:
mov eax, dword ptr [ebp+8]
mov ecx, dword ptr [eax+4]
and ecx, 31
mov dword ptr [ebp-8], ecx
.L_0C62:
mov ecx, dword ptr [ebp-8]
imul ecx, 28
cmp dword ptr [SYMB_DTYPETB+ecx+8], 0
je .L_053D
mov ecx, dword ptr [ebp+8]
mov eax, dword ptr [ecx+4]
and eax, 480
je .L_053E
mov dword ptr [ebp-12], 24
jmp .L_0C63
.L_053E:
mov eax, dword ptr [ebp+8]
mov ecx, dword ptr [eax+4]
and ecx, 31
mov dword ptr [ebp-12], ecx
.L_0C63:
mov ecx, dword ptr [ebp-12]
imul ecx, 28
cmp dword ptr [SYMB_DTYPETB+ecx+4], 4
jne .L_0541
sub esp, 12
push offset Lt_04FF
call OUTP
add esp, 16
jmp .L_0540
.L_0541:
sub esp, 12
push offset Lt_0500
call OUTP
add esp, 16
.L_0540:
sub esp, 12
push 0
push 6
push offset Lt_0501
push -1
push offset Lt_0C73
call fb_StrAssign
add esp, 32
sub esp, 12
push 0
push -1
push offset Lt_0C65
push -1
push offset Lt_0C73
call fb_StrConcatAssign
add esp, 32
sub esp, 12
push dword ptr [Lt_0C73]
call OUTP
add esp, 16
jmp .L_053C
.L_053D:
sub esp, 12
push 0
push 5
push offset Lt_03D2
push -1
push offset Lt_0C73
call fb_StrAssign
add esp, 32
sub esp, 12
push 0
push -1
push offset Lt_0C68
push -1
push offset Lt_0C73
call fb_StrConcatAssign
add esp, 32
sub esp, 12
push 0
push 3
push offset Lt_0073
push -1
push offset Lt_0C73
call fb_StrConcatAssign
add esp, 32
sub esp, 12
push 0
push -1
push offset Lt_0C68
push -1
push offset Lt_0C73
call fb_StrConcatAssign
add esp, 32
sub esp, 12
push dword ptr [Lt_0C73]
call OUTP
add esp, 16
sub esp, 12
push 0
push 5
push offset Lt_0502
push -1
push offset Lt_0C73
call fb_StrAssign
add esp, 32
sub esp, 12
push 0
push -1
push offset Lt_0C65
push -1
push offset Lt_0C73
call fb_StrConcatAssign
add esp, 32
sub esp, 12
push dword ptr [Lt_0C73]
call OUTP
add esp, 16
.L_053C:
sub esp, 8
push dword ptr [Lt_0C68]
push dword ptr [Lt_0C66]
call HMOV
add esp, 16
cmp dword ptr [Lt_0C70], 0
je .L_0543
mov ecx, dword ptr [ebp+8]
cmp dword ptr [ecx], 4
je .L_0545
sub esp, 12
push offset Lt_0082
call HPOP
add esp, 16
.L_0545:
.L_0544:
jmp .L_0542
.L_0543:
cmp dword ptr [Lt_0C6C], 0
jne .L_0546
sub esp, 12
push offset Lt_0082
call HPOP
add esp, 16
.L_0546:
.L_0542:
cmp dword ptr [Lt_0C6F], 0
jne .L_0548
mov ecx, dword ptr [Lt_0C69]
and ecx, dword ptr [Lt_0C71]
je .L_054A
mov ecx, dword ptr [ebp+8]
cmp dword ptr [ecx], 4
je .L_054C
cmp dword ptr [Lt_0C6A], 0
jne .L_054E
sub esp, 12
push offset Lt_0085
call HPOP
add esp, 16
sub esp, 12
push offset Lt_0510
call OUTP
add esp, 16
jmp .L_054D
.L_054E:
sub esp, 12
push offset Lt_0085
call HPOP
add esp, 16
.L_054D:
.L_054C:
.L_054B:
.L_054A:
.L_0549:
sub esp, 8
push dword ptr [Lt_0C66]
push dword ptr [Lt_0C64]
call HMOV
add esp, 16
cmp dword ptr [Lt_0C6A], 0
jne .L_0550
sub esp, 12
push offset Lt_0087
call HPOP
add esp, 16
.L_0550:
.L_054F:
jmp .L_0547
.L_0548:
mov ecx, dword ptr [ebp+8]
cmp dword ptr [ecx], 4
je .L_0552
mov ecx, dword ptr [Lt_0C6B]
test ecx, ecx
sete cl
shr ecx, 1
sbb ecx, ecx
mov eax, dword ptr [Lt_0C69]
test eax, eax
sete al
shr eax, 1
sbb eax, eax
and ecx, eax
je .L_0554
sub esp, 12
push offset Lt_0510
call OUTP
add esp, 16
sub esp, 12
push offset Lt_0517
call OUTP
add esp, 16
jmp .L_0553
.L_0554:
sub esp, 8
push offset Lt_0087
push offset Lt_0085
call HMOV
add esp, 16
sub esp, 12
push offset Lt_0087
call HPOP
add esp, 16
.L_0553:
sub esp, 8
push dword ptr [Lt_0C67]
push dword ptr [Lt_0C64]
call HMOV
add esp, 16
mov eax, dword ptr [Lt_0C6B]
test eax, eax
sete al
shr eax, 1
sbb eax, eax
mov ecx, dword ptr [Lt_0C69]
test ecx, ecx
sete cl
shr ecx, 1
sbb ecx, ecx
and eax, ecx
je .L_0556
sub esp, 12
push offset Lt_0085
call HPOP
add esp, 16
.L_0556:
.L_0555:
.L_0552:
.L_0551:
.L_0547:
cmp dword ptr [Lt_0C69], 0
je .L_0558
mov ecx, dword ptr [Lt_0C6B]
test ecx, ecx
sete cl
shr ecx, 1
sbb ecx, ecx
mov eax, dword ptr [Lt_0C71]
test eax, eax
sete al
shr eax, 1
sbb eax, eax
and ecx, eax
je .L_055A
sub esp, 12
push offset Lt_0085
call HPOP
add esp, 16
.L_055A:
.L_0559:
.L_0558:
.L_0557:
.L_051F:
pop ebx
mov esp, ebp
pop ebp
.cfi_restore 5
.cfi_def_cfa 4, 4
ret
.size _EMITMODI, .-_EMITMODI
.cfi_endproc

.section .bss
.balign 4
	.lcomm	Lt_0C64,12
.balign 4
	.lcomm	Lt_0C65,12
.balign 4
	.lcomm	Lt_0C69,4
.balign 4
	.lcomm	Lt_0C6A,4
.balign 4
	.lcomm	Lt_0C6B,4
.balign 4
	.lcomm	Lt_0C6C,4
.balign 4
	.lcomm	Lt_0C6F,4
.balign 4
	.lcomm	Lt_0C71,4
.balign 4
	.lcomm	Lt_0C70,4
.balign 4
	.lcomm	Lt_0C6D,4
.balign 4
	.lcomm	Lt_0C6E,4
.balign 4
	.lcomm	Lt_0C66,12
.balign 4
	.lcomm	Lt_0C67,12
.balign 4
	.lcomm	Lt_0C68,12
.balign 4
	.lcomm	Lt_0C73,12

.section .text
.balign 16
HSHIFTL:
.type HSHIFTL, @function
.cfi_startproc
push ebp
.cfi_def_cfa_offset 8
.cfi_offset 5, -8
mov ebp, esp
.cfi_def_cfa_register 5
sub esp, 228
push ebx
.L_055B:
cmp dword ptr [ebp+8], 41
jne .L_055E
sub esp, 12
push 0
push 5
push offset Lt_055F
push -1
push offset Lt_0C7F
call fb_StrAssign
add esp, 32
sub esp, 12
push 0
push 6
push offset Lt_0560
push -1
push offset Lt_0C80
call fb_StrAssign
add esp, 32
jmp .L_055D
.L_055E:
mov eax, dword ptr [ebp+12]
mov ebx, dword ptr [eax+4]
and ebx, 480
je .L_0561
mov dword ptr [ebp-4], 24
jmp .L_0C7A
.L_0561:
mov ebx, dword ptr [ebp+12]
mov eax, dword ptr [ebx+4]
and eax, 31
mov dword ptr [ebp-4], eax
.L_0C7A:
mov eax, dword ptr [ebp-4]
imul eax, 28
cmp dword ptr [SYMB_DTYPETB+eax+8], 0
je .L_0564
sub esp, 12
push 0
push 5
push offset Lt_031D
push -1
push offset Lt_0C7F
call fb_StrAssign
add esp, 32
jmp .L_0563
.L_0564:
sub esp, 12
push 0
push 5
push offset Lt_0565
push -1
push offset Lt_0C7F
call fb_StrAssign
add esp, 32
.L_0563:
sub esp, 12
push 0
push 6
push offset Lt_0566
push -1
push offset Lt_0C80
call fb_StrAssign
add esp, 32
.L_055D:
sub esp, 4
push offset Lt_0C81
push offset Lt_0C82
push dword ptr [ebp+12]
call HPREPOPERAND64
add esp, 16
sub esp, 8
push -1
push 0
push 0
push 8
push offset Lt_0C83
push dword ptr [ebp+16]
call HPREPOPERAND
add esp, 32
cmp dword ptr [ebp+8], 41
jne .L_0568
sub esp, 12
push 0
push -1
push offset Lt_0C81
push -1
push offset Lt_0C84
call fb_StrAssign
add esp, 32
mov eax, dword ptr [ebp+12]
mov ebx, dword ptr [eax+52]
mov dword ptr [Lt_0C85], ebx
sub esp, 12
push 0
push -1
push offset Lt_0C82
push -1
push offset Lt_0C86
call fb_StrAssign
add esp, 32
mov ebx, dword ptr [ebp+12]
mov dword ptr [Lt_0C87], ebx
jmp .L_0567
.L_0568:
sub esp, 12
push 0
push -1
push offset Lt_0C82
push -1
push offset Lt_0C84
call fb_StrAssign
add esp, 32
mov ebx, dword ptr [ebp+12]
mov dword ptr [Lt_0C85], ebx
sub esp, 12
push 0
push -1
push offset Lt_0C81
push -1
push offset Lt_0C86
call fb_StrAssign
add esp, 32
mov ebx, dword ptr [ebp+12]
mov eax, dword ptr [ebx+52]
mov dword ptr [Lt_0C87], eax
.L_0567:
mov eax, dword ptr [ebp+16]
cmp dword ptr [eax], 0
jne .L_056A
mov eax, dword ptr [ebp+16]
cmp dword ptr [eax+28], 0
jl .L_056C
jg .L_0C88
cmp dword ptr [eax+24], 64
jb .L_056C
.L_0C88:
mov eax, dword ptr [Lt_0C87]
cmp dword ptr [eax], 4
jne .L_056E
sub esp, 12
mov dword ptr [ebp-48], 0
mov dword ptr [ebp-44], 0
mov dword ptr [ebp-40], 0
push 0
push -1
sub esp, 8
push -1
push offset Lt_0C86
push -1
sub esp, 4
push 3
push offset Lt_0073
push -1
sub esp, 4
push -1
push offset Lt_0C86
push 5
push offset Lt_03D2
mov dword ptr [ebp-12], 0
mov dword ptr [ebp-8], 0
mov dword ptr [ebp-4], 0
lea eax, [ebp-12]
push eax
call fb_StrConcat
add esp, 24
push eax
mov dword ptr [ebp-24], 0
mov dword ptr [ebp-20], 0
mov dword ptr [ebp-16], 0
lea eax, [ebp-24]
push eax
call fb_StrConcat
add esp, 24
push eax
mov dword ptr [ebp-36], 0
mov dword ptr [ebp-32], 0
mov dword ptr [ebp-28], 0
lea eax, [ebp-36]
push eax
call fb_StrConcat
add esp, 28
push eax
push -1
lea eax, [ebp-48]
push eax
call fb_StrAssign
add esp, 20
push dword ptr [ebp-48]
call OUTP
add esp, 16
sub esp, 12
lea eax, [ebp-48]
push eax
call fb_StrDelete
add esp, 16
jmp .L_056D
.L_056E:
sub esp, 12
mov dword ptr [ebp-36], 0
mov dword ptr [ebp-32], 0
mov dword ptr [ebp-28], 0
push 0
push -1
sub esp, 8
push 4
push offset Lt_02FD
push -1
sub esp, 4
push -1
push offset Lt_0C86
push 5
push offset Lt_017D
mov dword ptr [ebp-12], 0
mov dword ptr [ebp-8], 0
mov dword ptr [ebp-4], 0
lea eax, [ebp-12]
push eax
call fb_StrConcat
add esp, 24
push eax
mov dword ptr [ebp-24], 0
mov dword ptr [ebp-20], 0
mov dword ptr [ebp-16], 0
lea eax, [ebp-24]
push eax
call fb_StrConcat
add esp, 28
push eax
push -1
lea eax, [ebp-36]
push eax
call fb_StrAssign
add esp, 20
push dword ptr [ebp-36]
call OUTP
add esp, 16
sub esp, 12
lea eax, [ebp-36]
push eax
call fb_StrDelete
add esp, 16
.L_056D:
mov eax, dword ptr [Lt_0C85]
cmp dword ptr [eax], 4
jne .L_0577
sub esp, 12
mov dword ptr [ebp-48], 0
mov dword ptr [ebp-44], 0
mov dword ptr [ebp-40], 0
push 0
push -1
sub esp, 8
push -1
push offset Lt_0C84
push -1
sub esp, 4
push 3
push offset Lt_0073
push -1
sub esp, 4
push -1
push offset Lt_0C84
push 5
push offset Lt_03D2
mov dword ptr [ebp-12], 0
mov dword ptr [ebp-8], 0
mov dword ptr [ebp-4], 0
lea eax, [ebp-12]
push eax
call fb_StrConcat
add esp, 24
push eax
mov dword ptr [ebp-24], 0
mov dword ptr [ebp-20], 0
mov dword ptr [ebp-16], 0
lea eax, [ebp-24]
push eax
call fb_StrConcat
add esp, 24
push eax
mov dword ptr [ebp-36], 0
mov dword ptr [ebp-32], 0
mov dword ptr [ebp-28], 0
lea eax, [ebp-36]
push eax
call fb_StrConcat
add esp, 28
push eax
push -1
lea eax, [ebp-48]
push eax
call fb_StrAssign
add esp, 20
push dword ptr [ebp-48]
call OUTP
add esp, 16
sub esp, 12
lea eax, [ebp-48]
push eax
call fb_StrDelete
add esp, 16
jmp .L_0576
.L_0577:
sub esp, 12
mov dword ptr [ebp-36], 0
mov dword ptr [ebp-32], 0
mov dword ptr [ebp-28], 0
push 0
push -1
sub esp, 8
push 4
push offset Lt_02FD
push -1
sub esp, 4
push -1
push offset Lt_0C84
push 5
push offset Lt_017D
mov dword ptr [ebp-12], 0
mov dword ptr [ebp-8], 0
mov dword ptr [ebp-4], 0
lea eax, [ebp-12]
push eax
call fb_StrConcat
add esp, 24
push eax
mov dword ptr [ebp-24], 0
mov dword ptr [ebp-20], 0
mov dword ptr [ebp-16], 0
lea eax, [ebp-24]
push eax
call fb_StrConcat
add esp, 28
push eax
push -1
lea eax, [ebp-36]
push eax
call fb_StrAssign
add esp, 20
push dword ptr [ebp-36]
call OUTP
add esp, 16
sub esp, 12
lea eax, [ebp-36]
push eax
call fb_StrDelete
add esp, 16
.L_0576:
jmp .L_056B
.L_056C:
mov eax, dword ptr [ebp+16]
cmp dword ptr [eax+28], 0
jl .L_057F
jg .L_0C89
cmp dword ptr [eax+24], 32
jb .L_057F
.L_0C89:
mov dword ptr [Lt_0C8A], -1
mov eax, dword ptr [Lt_0C87]
mov ebx, dword ptr [eax]
cmp ebx, 4
sete bl
shr ebx, 1
sbb ebx, ebx
mov eax, dword ptr [Lt_0C85]
mov ecx, dword ptr [eax]
cmp ecx, 4
sete cl
shr ecx, 1
sbb ecx, ecx
or ebx, ecx
je .L_0581
sub esp, 12
mov dword ptr [ebp-52], 0
mov dword ptr [ebp-48], 0
mov dword ptr [ebp-44], 0
push 0
push -1
sub esp, 8
push -1
push offset Lt_0C86
push -1
sub esp, 4
push 3
push offset Lt_0073
push -1
sub esp, 4
push -1
push offset Lt_0C84
push 5
push offset Lt_017D
mov dword ptr [ebp-16], 0
mov dword ptr [ebp-12], 0
mov dword ptr [ebp-8], 0
lea ecx, [ebp-16]
push ecx
call fb_StrConcat
add esp, 24
push eax
mov dword ptr [ebp-28], 0
mov dword ptr [ebp-24], 0
mov dword ptr [ebp-20], 0
lea eax, [ebp-28]
push eax
call fb_StrConcat
add esp, 24
push eax
mov dword ptr [ebp-40], 0
mov dword ptr [ebp-36], 0
mov dword ptr [ebp-32], 0
lea eax, [ebp-40]
push eax
call fb_StrConcat
add esp, 28
push eax
push -1
lea eax, [ebp-52]
push eax
call fb_StrAssign
add esp, 20
push dword ptr [ebp-52]
call OUTP
add esp, 16
sub esp, 12
lea eax, [ebp-52]
push eax
call fb_StrDelete
add esp, 16
jmp .L_0580
.L_0581:
sub esp, 12
push 0
call HFINDFREEREG
add esp, 16
mov dword ptr [Lt_0C8D], eax
cmp dword ptr [Lt_0C8D], -1
jne .L_0587
sub esp, 8
push 0
push dword ptr [ebp+12]
call HFINDREGNOTINVREG
add esp, 16
mov dword ptr [Lt_0C8D], eax
mov dword ptr [Lt_0C8A], 0
.L_0587:
.L_0586:
sub esp, 12
push 0
push 0
sub esp, 4
push dword ptr [Lt_0C8D]
push 8
call HGETREGNAME
add esp, 12
push eax
push -1
push offset Lt_0C8E
call fb_StrAssign
add esp, 32
cmp dword ptr [Lt_0C8A], 0
jne .L_0589
sub esp, 12
push dword ptr [Lt_0C8E]
call HPUSH
add esp, 16
.L_0589:
.L_0588:
sub esp, 12
mov dword ptr [ebp-52], 0
mov dword ptr [ebp-48], 0
mov dword ptr [ebp-44], 0
push 0
push -1
sub esp, 8
push -1
push offset Lt_0C86
push -1
sub esp, 4
push 3
push offset Lt_0073
push -1
sub esp, 4
push -1
push offset Lt_0C8E
push 5
push offset Lt_017D
mov dword ptr [ebp-16], 0
mov dword ptr [ebp-12], 0
mov dword ptr [ebp-8], 0
lea eax, [ebp-16]
push eax
call fb_StrConcat
add esp, 24
push eax
mov dword ptr [ebp-28], 0
mov dword ptr [ebp-24], 0
mov dword ptr [ebp-20], 0
lea eax, [ebp-28]
push eax
call fb_StrConcat
add esp, 24
push eax
mov dword ptr [ebp-40], 0
mov dword ptr [ebp-36], 0
mov dword ptr [ebp-32], 0
lea eax, [ebp-40]
push eax
call fb_StrConcat
add esp, 28
push eax
push -1
lea eax, [ebp-52]
push eax
call fb_StrAssign
add esp, 20
push dword ptr [ebp-52]
call OUTP
add esp, 16
sub esp, 12
lea eax, [ebp-52]
push eax
call fb_StrDelete
add esp, 16
sub esp, 12
mov dword ptr [ebp-100], 0
mov dword ptr [ebp-96], 0
mov dword ptr [ebp-92], 0
push 0
push -1
sub esp, 8
push -1
push offset Lt_0C8E
push -1
sub esp, 4
push 3
push offset Lt_0073
push -1
sub esp, 4
push -1
push offset Lt_0C84
push 5
push offset Lt_017D
mov dword ptr [ebp-64], 0
mov dword ptr [ebp-60], 0
mov dword ptr [ebp-56], 0
lea eax, [ebp-64]
push eax
call fb_StrConcat
add esp, 24
push eax
mov dword ptr [ebp-76], 0
mov dword ptr [ebp-72], 0
mov dword ptr [ebp-68], 0
lea eax, [ebp-76]
push eax
call fb_StrConcat
add esp, 24
push eax
mov dword ptr [ebp-88], 0
mov dword ptr [ebp-84], 0
mov dword ptr [ebp-80], 0
lea eax, [ebp-88]
push eax
call fb_StrConcat
add esp, 28
push eax
push -1
lea eax, [ebp-100]
push eax
call fb_StrAssign
add esp, 20
push dword ptr [ebp-100]
call OUTP
add esp, 16
sub esp, 12
lea eax, [ebp-100]
push eax
call fb_StrDelete
add esp, 16
.L_0580:
mov eax, dword ptr [ebp+8]
cmp eax, 42
sete al
shr eax, 1
sbb eax, eax
mov dword ptr [ebp-8], eax
mov eax, dword ptr [ebp+12]
mov ecx, dword ptr [eax+4]
and ecx, 480
je .L_0592
mov dword ptr [ebp-4], 24
jmp .L_0C7B
.L_0592:
mov ecx, dword ptr [ebp+12]
mov eax, dword ptr [ecx+4]
and eax, 31
mov dword ptr [ebp-4], eax
.L_0C7B:
mov eax, dword ptr [ebp-4]
imul eax, 28
mov ecx, dword ptr [SYMB_DTYPETB+eax+8]
and ecx, dword ptr [ebp-8]
je .L_0595
sub esp, 12
mov dword ptr [ebp-44], 0
mov dword ptr [ebp-40], 0
mov dword ptr [ebp-36], 0
push 0
push -1
sub esp, 8
push 5
push offset Lt_031E
push -1
sub esp, 4
push -1
push offset Lt_0C86
push 5
push offset Lt_031D
mov dword ptr [ebp-20], 0
mov dword ptr [ebp-16], 0
mov dword ptr [ebp-12], 0
lea ecx, [ebp-20]
push ecx
call fb_StrConcat
add esp, 24
push eax
mov dword ptr [ebp-32], 0
mov dword ptr [ebp-28], 0
mov dword ptr [ebp-24], 0
lea eax, [ebp-32]
push eax
call fb_StrConcat
add esp, 28
push eax
push -1
lea eax, [ebp-44]
push eax
call fb_StrAssign
add esp, 20
push dword ptr [ebp-44]
call OUTP
add esp, 16
sub esp, 12
lea eax, [ebp-44]
push eax
call fb_StrDelete
add esp, 16
jmp .L_0594
.L_0595:
mov eax, dword ptr [Lt_0C87]
cmp dword ptr [eax], 4
jne .L_0599
sub esp, 12
mov dword ptr [ebp-52], 0
mov dword ptr [ebp-48], 0
mov dword ptr [ebp-44], 0
push 0
push -1
sub esp, 8
push -1
push offset Lt_0C86
push -1
sub esp, 4
push 3
push offset Lt_0073
push -1
sub esp, 4
push -1
push offset Lt_0C86
push 5
push offset Lt_03D2
mov dword ptr [ebp-16], 0
mov dword ptr [ebp-12], 0
mov dword ptr [ebp-8], 0
lea eax, [ebp-16]
push eax
call fb_StrConcat
add esp, 24
push eax
mov dword ptr [ebp-28], 0
mov dword ptr [ebp-24], 0
mov dword ptr [ebp-20], 0
lea eax, [ebp-28]
push eax
call fb_StrConcat
add esp, 24
push eax
mov dword ptr [ebp-40], 0
mov dword ptr [ebp-36], 0
mov dword ptr [ebp-32], 0
lea eax, [ebp-40]
push eax
call fb_StrConcat
add esp, 28
push eax
push -1
lea eax, [ebp-52]
push eax
call fb_StrAssign
add esp, 20
push dword ptr [ebp-52]
call OUTP
add esp, 16
sub esp, 12
lea eax, [ebp-52]
push eax
call fb_StrDelete
add esp, 16
jmp .L_0594
.L_0599:
sub esp, 12
mov dword ptr [ebp-40], 0
mov dword ptr [ebp-36], 0
mov dword ptr [ebp-32], 0
push 0
push -1
sub esp, 8
push 4
push offset Lt_02FD
push -1
sub esp, 4
push -1
push offset Lt_0C86
push 5
push offset Lt_017D
mov dword ptr [ebp-16], 0
mov dword ptr [ebp-12], 0
mov dword ptr [ebp-8], 0
lea eax, [ebp-16]
push eax
call fb_StrConcat
add esp, 24
push eax
mov dword ptr [ebp-28], 0
mov dword ptr [ebp-24], 0
mov dword ptr [ebp-20], 0
lea eax, [ebp-28]
push eax
call fb_StrConcat
add esp, 28
push eax
push -1
lea eax, [ebp-40]
push eax
call fb_StrAssign
add esp, 20
push dword ptr [ebp-40]
call OUTP
add esp, 16
sub esp, 12
lea eax, [ebp-40]
push eax
call fb_StrDelete
add esp, 16
.L_0594:
mov eax, dword ptr [ebp+16]
cmp dword ptr [eax+28], 0
jl .L_05A2
jg .L_0C90
cmp dword ptr [eax+24], 32
jbe .L_05A2
.L_0C90:
sub esp, 12
push 0
push -1
sub esp, 4
mov eax, dword ptr [ebp+16]
mov ebx, dword ptr [eax+24]
mov ecx, dword ptr [eax+28]
add ebx, 4294967264
adc ecx, 4294967295
push ecx
push ebx
call fb_LongintToStr
add esp, 12
push eax
push -1
push offset Lt_0C83
call fb_StrAssign
add esp, 32
sub esp, 12
mov dword ptr [ebp-52], 0
mov dword ptr [ebp-48], 0
mov dword ptr [ebp-44], 0
push 0
push -1
sub esp, 8
push -1
push offset Lt_0C83
push -1
sub esp, 4
push 3
push offset Lt_0073
push -1
sub esp, 4
push -1
push offset Lt_0C84
push -1
push offset Lt_0C7F
mov dword ptr [ebp-16], 0
mov dword ptr [ebp-12], 0
mov dword ptr [ebp-8], 0
lea eax, [ebp-16]
push eax
call fb_StrConcat
add esp, 24
push eax
mov dword ptr [ebp-28], 0
mov dword ptr [ebp-24], 0
mov dword ptr [ebp-20], 0
lea eax, [ebp-28]
push eax
call fb_StrConcat
add esp, 24
push eax
mov dword ptr [ebp-40], 0
mov dword ptr [ebp-36], 0
mov dword ptr [ebp-32], 0
lea eax, [ebp-40]
push eax
call fb_StrConcat
add esp, 28
push eax
push -1
lea eax, [ebp-52]
push eax
call fb_StrAssign
add esp, 20
push dword ptr [ebp-52]
call OUTP
add esp, 16
sub esp, 12
lea eax, [ebp-52]
push eax
call fb_StrDelete
add esp, 16
.L_05A2:
.L_05A1:
cmp dword ptr [Lt_0C8A], 0
jne .L_05A8
sub esp, 12
push dword ptr [Lt_0C8E]
call HPOP
add esp, 16
.L_05A8:
.L_05A7:
jmp .L_056B
.L_057F:
mov eax, dword ptr [Lt_0C87]
cmp dword ptr [eax], 4
jne .L_05AA
sub esp, 12
mov dword ptr [ebp-72], 0
mov dword ptr [ebp-68], 0
mov dword ptr [ebp-64], 0
push 0
push -1
sub esp, 8
push -1
push offset Lt_0C83
push -1
sub esp, 4
push 3
push offset Lt_0073
push -1
sub esp, 4
push -1
push offset Lt_0C86
push -1
sub esp, 4
push 3
push offset Lt_0073
push -1
sub esp, 4
push -1
push offset Lt_0C84
push -1
push offset Lt_0C80
mov dword ptr [ebp-12], 0
mov dword ptr [ebp-8], 0
mov dword ptr [ebp-4], 0
lea eax, [ebp-12]
push eax
call fb_StrConcat
add esp, 24
push eax
mov dword ptr [ebp-24], 0
mov dword ptr [ebp-20], 0
mov dword ptr [ebp-16], 0
lea eax, [ebp-24]
push eax
call fb_StrConcat
add esp, 24
push eax
mov dword ptr [ebp-36], 0
mov dword ptr [ebp-32], 0
mov dword ptr [ebp-28], 0
lea eax, [ebp-36]
push eax
call fb_StrConcat
add esp, 24
push eax
mov dword ptr [ebp-48], 0
mov dword ptr [ebp-44], 0
mov dword ptr [ebp-40], 0
lea eax, [ebp-48]
push eax
call fb_StrConcat
add esp, 24
push eax
mov dword ptr [ebp-60], 0
mov dword ptr [ebp-56], 0
mov dword ptr [ebp-52], 0
lea eax, [ebp-60]
push eax
call fb_StrConcat
add esp, 28
push eax
push -1
lea eax, [ebp-72]
push eax
call fb_StrAssign
add esp, 20
push dword ptr [ebp-72]
call OUTP
add esp, 16
sub esp, 12
lea eax, [ebp-72]
push eax
call fb_StrDelete
add esp, 16
sub esp, 12
mov dword ptr [ebp-120], 0
mov dword ptr [ebp-116], 0
mov dword ptr [ebp-112], 0
push 0
push -1
sub esp, 8
push -1
push offset Lt_0C83
push -1
sub esp, 4
push 3
push offset Lt_0073
push -1
sub esp, 4
push -1
push offset Lt_0C86
push -1
push offset Lt_0C7F
mov dword ptr [ebp-84], 0
mov dword ptr [ebp-80], 0
mov dword ptr [ebp-76], 0
lea eax, [ebp-84]
push eax
call fb_StrConcat
add esp, 24
push eax
mov dword ptr [ebp-96], 0
mov dword ptr [ebp-92], 0
mov dword ptr [ebp-88], 0
lea eax, [ebp-96]
push eax
call fb_StrConcat
add esp, 24
push eax
mov dword ptr [ebp-108], 0
mov dword ptr [ebp-104], 0
mov dword ptr [ebp-100], 0
lea eax, [ebp-108]
push eax
call fb_StrConcat
add esp, 28
push eax
push -1
lea eax, [ebp-120]
push eax
call fb_StrAssign
add esp, 20
push dword ptr [ebp-120]
call OUTP
add esp, 16
sub esp, 12
lea eax, [ebp-120]
push eax
call fb_StrDelete
add esp, 16
jmp .L_05A9
.L_05AA:
mov eax, dword ptr [Lt_0C85]
cmp dword ptr [eax], 4
jne .L_05B5
sub esp, 12
mov dword ptr [ebp-48], 0
mov dword ptr [ebp-44], 0
mov dword ptr [ebp-40], 0
push 0
push -1
sub esp, 8
push -1
push offset Lt_0C86
push -1
sub esp, 4
push 3
push offset Lt_0073
push -1
sub esp, 4
push -1
push offset Lt_0C84
push 6
push offset Lt_0183
mov dword ptr [ebp-12], 0
mov dword ptr [ebp-8], 0
mov dword ptr [ebp-4], 0
lea eax, [ebp-12]
push eax
call fb_StrConcat
add esp, 24
push eax
mov dword ptr [ebp-24], 0
mov dword ptr [ebp-20], 0
mov dword ptr [ebp-16], 0
lea eax, [ebp-24]
push eax
call fb_StrConcat
add esp, 24
push eax
mov dword ptr [ebp-36], 0
mov dword ptr [ebp-32], 0
mov dword ptr [ebp-28], 0
lea eax, [ebp-36]
push eax
call fb_StrConcat
add esp, 28
push eax
push -1
lea eax, [ebp-48]
push eax
call fb_StrAssign
add esp, 20
push dword ptr [ebp-48]
call OUTP
add esp, 16
sub esp, 12
lea eax, [ebp-48]
push eax
call fb_StrDelete
add esp, 16
sub esp, 12
mov dword ptr [ebp-120], 0
mov dword ptr [ebp-116], 0
mov dword ptr [ebp-112], 0
push 0
push -1
sub esp, 8
push -1
push offset Lt_0C83
push -1
sub esp, 4
push 3
push offset Lt_0073
push -1
sub esp, 4
push -1
push offset Lt_0C84
push -1
sub esp, 4
push 3
push offset Lt_0073
push -1
sub esp, 4
push -1
push offset Lt_0C86
push -1
push offset Lt_0C80
mov dword ptr [ebp-60], 0
mov dword ptr [ebp-56], 0
mov dword ptr [ebp-52], 0
lea eax, [ebp-60]
push eax
call fb_StrConcat
add esp, 24
push eax
mov dword ptr [ebp-72], 0
mov dword ptr [ebp-68], 0
mov dword ptr [ebp-64], 0
lea eax, [ebp-72]
push eax
call fb_StrConcat
add esp, 24
push eax
mov dword ptr [ebp-84], 0
mov dword ptr [ebp-80], 0
mov dword ptr [ebp-76], 0
lea eax, [ebp-84]
push eax
call fb_StrConcat
add esp, 24
push eax
mov dword ptr [ebp-96], 0
mov dword ptr [ebp-92], 0
mov dword ptr [ebp-88], 0
lea eax, [ebp-96]
push eax
call fb_StrConcat
add esp, 24
push eax
mov dword ptr [ebp-108], 0
mov dword ptr [ebp-104], 0
mov dword ptr [ebp-100], 0
lea eax, [ebp-108]
push eax
call fb_StrConcat
add esp, 28
push eax
push -1
lea eax, [ebp-120]
push eax
call fb_StrAssign
add esp, 20
push dword ptr [ebp-120]
call OUTP
add esp, 16
sub esp, 12
lea eax, [ebp-120]
push eax
call fb_StrDelete
add esp, 16
sub esp, 12
mov dword ptr [ebp-168], 0
mov dword ptr [ebp-164], 0
mov dword ptr [ebp-160], 0
push 0
push -1
sub esp, 8
push -1
push offset Lt_0C83
push -1
sub esp, 4
push 3
push offset Lt_0073
push -1
sub esp, 4
push -1
push offset Lt_0C84
push -1
push offset Lt_0C7F
mov dword ptr [ebp-132], 0
mov dword ptr [ebp-128], 0
mov dword ptr [ebp-124], 0
lea eax, [ebp-132]
push eax
call fb_StrConcat
add esp, 24
push eax
mov dword ptr [ebp-144], 0
mov dword ptr [ebp-140], 0
mov dword ptr [ebp-136], 0
lea eax, [ebp-144]
push eax
call fb_StrConcat
add esp, 24
push eax
mov dword ptr [ebp-156], 0
mov dword ptr [ebp-152], 0
mov dword ptr [ebp-148], 0
lea eax, [ebp-156]
push eax
call fb_StrConcat
add esp, 28
push eax
push -1
lea eax, [ebp-168]
push eax
call fb_StrAssign
add esp, 20
push dword ptr [ebp-168]
call OUTP
add esp, 16
sub esp, 12
lea eax, [ebp-168]
push eax
call fb_StrDelete
add esp, 16
sub esp, 12
mov dword ptr [ebp-216], 0
mov dword ptr [ebp-212], 0
mov dword ptr [ebp-208], 0
push 0
push -1
sub esp, 8
push -1
push offset Lt_0C86
push -1
sub esp, 4
push 3
push offset Lt_0073
push -1
sub esp, 4
push -1
push offset Lt_0C84
push 6
push offset Lt_0183
mov dword ptr [ebp-180], 0
mov dword ptr [ebp-176], 0
mov dword ptr [ebp-172], 0
lea eax, [ebp-180]
push eax
call fb_StrConcat
add esp, 24
push eax
mov dword ptr [ebp-192], 0
mov dword ptr [ebp-188], 0
mov dword ptr [ebp-184], 0
lea eax, [ebp-192]
push eax
call fb_StrConcat
add esp, 24
push eax
mov dword ptr [ebp-204], 0
mov dword ptr [ebp-200], 0
mov dword ptr [ebp-196], 0
lea eax, [ebp-204]
push eax
call fb_StrConcat
add esp, 28
push eax
push -1
lea eax, [ebp-216]
push eax
call fb_StrAssign
add esp, 20
push dword ptr [ebp-216]
call OUTP
add esp, 16
sub esp, 12
lea eax, [ebp-216]
push eax
call fb_StrDelete
add esp, 16
jmp .L_05A9
.L_05B5:
sub esp, 12
push 0
call HFINDFREEREG
add esp, 16
mov dword ptr [Lt_0C8D], eax
cmp dword ptr [Lt_0C8D], -1
jne .L_05C9
sub esp, 8
push 0
push dword ptr [ebp+12]
call HFINDREGNOTINVREG
add esp, 16
mov dword ptr [Lt_0C8D], eax
mov dword ptr [Lt_0C8A], 0
jmp .L_05C8
.L_05C9:
mov dword ptr [Lt_0C8A], -1
.L_05C8:
sub esp, 12
push 0
push 0
sub esp, 4
push dword ptr [Lt_0C8D]
push 8
call HGETREGNAME
add esp, 12
push eax
push -1
push offset Lt_0C8E
call fb_StrAssign
add esp, 32
cmp dword ptr [Lt_0C8A], 0
jne .L_05CB
sub esp, 12
push dword ptr [Lt_0C8E]
call HPUSH
add esp, 16
.L_05CB:
.L_05CA:
sub esp, 12
mov dword ptr [ebp-48], 0
mov dword ptr [ebp-44], 0
mov dword ptr [ebp-40], 0
push 0
push -1
sub esp, 8
push -1
push offset Lt_0C86
push -1
sub esp, 4
push 3
push offset Lt_0073
push -1
sub esp, 4
push -1
push offset Lt_0C8E
push 5
push offset Lt_017D
mov dword ptr [ebp-12], 0
mov dword ptr [ebp-8], 0
mov dword ptr [ebp-4], 0
lea eax, [ebp-12]
push eax
call fb_StrConcat
add esp, 24
push eax
mov dword ptr [ebp-24], 0
mov dword ptr [ebp-20], 0
mov dword ptr [ebp-16], 0
lea eax, [ebp-24]
push eax
call fb_StrConcat
add esp, 24
push eax
mov dword ptr [ebp-36], 0
mov dword ptr [ebp-32], 0
mov dword ptr [ebp-28], 0
lea eax, [ebp-36]
push eax
call fb_StrConcat
add esp, 28
push eax
push -1
lea eax, [ebp-48]
push eax
call fb_StrAssign
add esp, 20
push dword ptr [ebp-48]
call OUTP
add esp, 16
sub esp, 12
lea eax, [ebp-48]
push eax
call fb_StrDelete
add esp, 16
sub esp, 12
mov dword ptr [ebp-120], 0
mov dword ptr [ebp-116], 0
mov dword ptr [ebp-112], 0
push 0
push -1
sub esp, 8
push -1
push offset Lt_0C83
push -1
sub esp, 4
push 3
push offset Lt_0073
push -1
sub esp, 4
push -1
push offset Lt_0C8E
push -1
sub esp, 4
push 3
push offset Lt_0073
push -1
sub esp, 4
push -1
push offset Lt_0C84
push -1
push offset Lt_0C80
mov dword ptr [ebp-60], 0
mov dword ptr [ebp-56], 0
mov dword ptr [ebp-52], 0
lea eax, [ebp-60]
push eax
call fb_StrConcat
add esp, 24
push eax
mov dword ptr [ebp-72], 0
mov dword ptr [ebp-68], 0
mov dword ptr [ebp-64], 0
lea eax, [ebp-72]
push eax
call fb_StrConcat
add esp, 24
push eax
mov dword ptr [ebp-84], 0
mov dword ptr [ebp-80], 0
mov dword ptr [ebp-76], 0
lea eax, [ebp-84]
push eax
call fb_StrConcat
add esp, 24
push eax
mov dword ptr [ebp-96], 0
mov dword ptr [ebp-92], 0
mov dword ptr [ebp-88], 0
lea eax, [ebp-96]
push eax
call fb_StrConcat
add esp, 24
push eax
mov dword ptr [ebp-108], 0
mov dword ptr [ebp-104], 0
mov dword ptr [ebp-100], 0
lea eax, [ebp-108]
push eax
call fb_StrConcat
add esp, 28
push eax
push -1
lea eax, [ebp-120]
push eax
call fb_StrAssign
add esp, 20
push dword ptr [ebp-120]
call OUTP
add esp, 16
sub esp, 12
lea eax, [ebp-120]
push eax
call fb_StrDelete
add esp, 16
sub esp, 12
mov dword ptr [ebp-168], 0
mov dword ptr [ebp-164], 0
mov dword ptr [ebp-160], 0
push 0
push -1
sub esp, 8
push -1
push offset Lt_0C83
push -1
sub esp, 4
push 3
push offset Lt_0073
push -1
sub esp, 4
push -1
push offset Lt_0C8E
push -1
push offset Lt_0C7F
mov dword ptr [ebp-132], 0
mov dword ptr [ebp-128], 0
mov dword ptr [ebp-124], 0
lea eax, [ebp-132]
push eax
call fb_StrConcat
add esp, 24
push eax
mov dword ptr [ebp-144], 0
mov dword ptr [ebp-140], 0
mov dword ptr [ebp-136], 0
lea eax, [ebp-144]
push eax
call fb_StrConcat
add esp, 24
push eax
mov dword ptr [ebp-156], 0
mov dword ptr [ebp-152], 0
mov dword ptr [ebp-148], 0
lea eax, [ebp-156]
push eax
call fb_StrConcat
add esp, 28
push eax
push -1
lea eax, [ebp-168]
push eax
call fb_StrAssign
add esp, 20
push dword ptr [ebp-168]
call OUTP
add esp, 16
sub esp, 12
lea eax, [ebp-168]
push eax
call fb_StrDelete
add esp, 16
sub esp, 12
mov dword ptr [ebp-216], 0
mov dword ptr [ebp-212], 0
mov dword ptr [ebp-208], 0
push 0
push -1
sub esp, 8
push -1
push offset Lt_0C8E
push -1
sub esp, 4
push 3
push offset Lt_0073
push -1
sub esp, 4
push -1
push offset Lt_0C86
push 5
push offset Lt_017D
mov dword ptr [ebp-180], 0
mov dword ptr [ebp-176], 0
mov dword ptr [ebp-172], 0
lea eax, [ebp-180]
push eax
call fb_StrConcat
add esp, 24
push eax
mov dword ptr [ebp-192], 0
mov dword ptr [ebp-188], 0
mov dword ptr [ebp-184], 0
lea eax, [ebp-192]
push eax
call fb_StrConcat
add esp, 24
push eax
mov dword ptr [ebp-204], 0
mov dword ptr [ebp-200], 0
mov dword ptr [ebp-196], 0
lea eax, [ebp-204]
push eax
call fb_StrConcat
add esp, 28
push eax
push -1
lea eax, [ebp-216]
push eax
call fb_StrAssign
add esp, 20
push dword ptr [ebp-216]
call OUTP
add esp, 16
sub esp, 12
lea eax, [ebp-216]
push eax
call fb_StrDelete
add esp, 16
cmp dword ptr [Lt_0C8A], 0
jne .L_05DF
sub esp, 12
push offset Lt_0087
call HPOP
add esp, 16
.L_05DF:
.L_05DE:
.L_05A9:
.L_056B:
jmp .L_0569
.L_056A:
sub esp, 12
push 0
push 0
sub esp, 12
call SYMBUNIQUELABEL
add esp, 12
push eax
push -1
push offset Lt_0C91
call fb_StrAssign
add esp, 32
sub esp, 12
push dword ptr [Lt_0C81]
call HPUSH
add esp, 16
sub esp, 12
push dword ptr [Lt_0C82]
call HPUSH
add esp, 16
mov dword ptr [Lt_0C92], 0
sub esp, 8
push 5
push 0
call HISREGFREE
add esp, 16
mov dword ptr [Lt_0C93], eax
sub esp, 8
push 0
push 0
call HISREGFREE
add esp, 16
mov dword ptr [Lt_0C94], eax
sub esp, 8
push 3
push 0
call HISREGFREE
add esp, 16
mov dword ptr [Lt_0C95], eax
sub esp, 8
push 5
push dword ptr [ebp+12]
call HISREGINVREG
add esp, 16
mov dword ptr [Lt_0C96], eax
sub esp, 8
push 0
push dword ptr [ebp+12]
call HISREGINVREG
add esp, 16
mov dword ptr [Lt_0C97], eax
sub esp, 8
push 3
push dword ptr [ebp+12]
call HISREGINVREG
add esp, 16
mov dword ptr [Lt_0C98], eax
mov eax, dword ptr [ebp+16]
mov ebx, dword ptr [eax]
cmp ebx, 4
setne bl
shr ebx, 1
sbb ebx, ebx
mov eax, dword ptr [ebp+16]
mov ecx, dword ptr [eax+12]
cmp ecx, 3
setne cl
shr ecx, 1
sbb ecx, ecx
or ebx, ecx
je .L_05E1
mov ecx, dword ptr [ebp+16]
mov ebx, dword ptr [ecx+4]
and ebx, 480
je .L_05E2
mov dword ptr [ebp-4], 24
jmp .L_0C7D
.L_05E2:
mov ebx, dword ptr [ebp+16]
mov ecx, dword ptr [ebx+4]
and ecx, 31
mov dword ptr [ebp-4], ecx
.L_0C7D:
mov ecx, dword ptr [ebp-4]
imul ecx, 28
cmp dword ptr [SYMB_DTYPETB+ecx+4], 4
je .L_05E5
mov ecx, dword ptr [ebp+16]
cmp dword ptr [ecx], 4
jne .L_05E7
sub esp, 12
push 0
push 0
sub esp, 4
mov ecx, dword ptr [ebp+16]
push dword ptr [ecx+12]
push 8
call HGETREGNAME
add esp, 12
push eax
push -1
push offset Lt_0C83
call fb_StrAssign
add esp, 32
.L_05E7:
.L_05E6:
.L_05E5:
.L_05E4:
cmp dword ptr [Lt_0C95], 0
jne .L_05E9
mov eax, dword ptr [ebp+12]
mov ecx, dword ptr [eax]
cmp ecx, 4
sete cl
shr ecx, 1
sbb ecx, ecx
and ecx, dword ptr [Lt_0C98]
je .L_05EB
sub esp, 8
push dword ptr [Lt_0C83]
push offset Lt_0085
call HMOV
add esp, 16
mov dword ptr [Lt_0C95], -1
jmp .L_05EA
.L_05EB:
sub esp, 12
push dword ptr [Lt_0C83]
call HPUSH
add esp, 16
sub esp, 12
push offset Lt_0510
call OUTP
add esp, 16
add dword ptr [Lt_0C92], 4
.L_05EA:
jmp .L_05E8
.L_05E9:
sub esp, 8
push dword ptr [Lt_0C83]
push offset Lt_0085
call HMOV
add esp, 16
.L_05E8:
jmp .L_05E0
.L_05E1:
mov dword ptr [Lt_0C95], -1
.L_05E0:
cmp dword ptr [Lt_0C96], 0
je .L_05ED
mov ecx, dword ptr [ebp+12]
cmp dword ptr [ecx], 4
je .L_05EF
sub esp, 12
mov dword ptr [ebp-36], 0
mov dword ptr [ebp-32], 0
mov dword ptr [ebp-28], 0
push 0
push -1
sub esp, 8
push 2
push offset Lt_0144
push -1
sub esp, 4
push -1
sub esp, 12
push dword ptr [Lt_0C92]
call fb_IntToStr
add esp, 16
push eax
push 16
push offset Lt_0498
mov dword ptr [ebp-12], 0
mov dword ptr [ebp-8], 0
mov dword ptr [ebp-4], 0
lea eax, [ebp-12]
push eax
call fb_StrConcat
add esp, 24
push eax
mov dword ptr [ebp-24], 0
mov dword ptr [ebp-20], 0
mov dword ptr [ebp-16], 0
lea eax, [ebp-24]
push eax
call fb_StrConcat
add esp, 28
push eax
push -1
lea eax, [ebp-36]
push eax
call fb_StrAssign
add esp, 20
push dword ptr [ebp-36]
call OUTP
add esp, 16
sub esp, 12
lea eax, [ebp-36]
push eax
call fb_StrDelete
add esp, 16
jmp .L_05EE
.L_05EF:
sub esp, 12
mov dword ptr [ebp-36], 0
mov dword ptr [ebp-32], 0
mov dword ptr [ebp-28], 0
push 0
push -1
sub esp, 8
push 2
push offset Lt_0144
push -1
sub esp, 4
push -1
sub esp, 12
push dword ptr [Lt_0C92]
call fb_IntToStr
add esp, 16
push eax
push 15
push offset Lt_0490
mov dword ptr [ebp-12], 0
mov dword ptr [ebp-8], 0
mov dword ptr [ebp-4], 0
lea eax, [ebp-12]
push eax
call fb_StrConcat
add esp, 24
push eax
mov dword ptr [ebp-24], 0
mov dword ptr [ebp-20], 0
mov dword ptr [ebp-16], 0
lea eax, [ebp-24]
push eax
call fb_StrConcat
add esp, 28
push eax
push -1
lea eax, [ebp-36]
push eax
call fb_StrAssign
add esp, 20
push dword ptr [ebp-36]
call OUTP
add esp, 16
sub esp, 12
lea eax, [ebp-36]
push eax
call fb_StrDelete
add esp, 16
.L_05EE:
jmp .L_05EC
.L_05ED:
cmp dword ptr [Lt_0C93], 0
jne .L_05F7
sub esp, 12
mov dword ptr [ebp-36], 0
mov dword ptr [ebp-32], 0
mov dword ptr [ebp-28], 0
push 0
push -1
sub esp, 8
push 2
push offset Lt_0144
push -1
sub esp, 4
push -1
sub esp, 12
push dword ptr [Lt_0C92]
call fb_IntToStr
add esp, 16
push eax
push 16
push offset Lt_0498
mov dword ptr [ebp-12], 0
mov dword ptr [ebp-8], 0
mov dword ptr [ebp-4], 0
lea eax, [ebp-12]
push eax
call fb_StrConcat
add esp, 24
push eax
mov dword ptr [ebp-24], 0
mov dword ptr [ebp-20], 0
mov dword ptr [ebp-16], 0
lea eax, [ebp-24]
push eax
call fb_StrConcat
add esp, 28
push eax
push -1
lea eax, [ebp-36]
push eax
call fb_StrAssign
add esp, 20
push dword ptr [ebp-36]
call OUTP
add esp, 16
sub esp, 12
lea eax, [ebp-36]
push eax
call fb_StrDelete
add esp, 16
jmp .L_05F6
.L_05F7:
sub esp, 12
mov dword ptr [ebp-36], 0
mov dword ptr [ebp-32], 0
mov dword ptr [ebp-28], 0
push 0
push -1
sub esp, 8
push 2
push offset Lt_0144
push -1
sub esp, 4
push -1
sub esp, 12
push dword ptr [Lt_0C92]
call fb_IntToStr
add esp, 16
push eax
push 15
push offset Lt_0490
mov dword ptr [ebp-12], 0
mov dword ptr [ebp-8], 0
mov dword ptr [ebp-4], 0
lea eax, [ebp-12]
push eax
call fb_StrConcat
add esp, 24
push eax
mov dword ptr [ebp-24], 0
mov dword ptr [ebp-20], 0
mov dword ptr [ebp-16], 0
lea eax, [ebp-24]
push eax
call fb_StrConcat
add esp, 28
push eax
push -1
lea eax, [ebp-36]
push eax
call fb_StrAssign
add esp, 20
push dword ptr [ebp-36]
call OUTP
add esp, 16
sub esp, 12
lea eax, [ebp-36]
push eax
call fb_StrDelete
add esp, 16
.L_05F6:
.L_05EC:
cmp dword ptr [Lt_0C97], 0
je .L_05FF
mov eax, dword ptr [ebp+12]
cmp dword ptr [eax], 4
je .L_0601
sub esp, 12
mov dword ptr [ebp-36], 0
mov dword ptr [ebp-32], 0
mov dword ptr [ebp-28], 0
push 0
push -1
sub esp, 8
push 2
push offset Lt_0144
push -1
sub esp, 4
push -1
sub esp, 12
mov eax, dword ptr [Lt_0C92]
add eax, 4
push eax
call fb_IntToStr
add esp, 16
push eax
push 16
push offset Lt_0602
mov dword ptr [ebp-12], 0
mov dword ptr [ebp-8], 0
mov dword ptr [ebp-4], 0
lea eax, [ebp-12]
push eax
call fb_StrConcat
add esp, 24
push eax
mov dword ptr [ebp-24], 0
mov dword ptr [ebp-20], 0
mov dword ptr [ebp-16], 0
lea eax, [ebp-24]
push eax
call fb_StrConcat
add esp, 28
push eax
push -1
lea eax, [ebp-36]
push eax
call fb_StrAssign
add esp, 20
push dword ptr [ebp-36]
call OUTP
add esp, 16
sub esp, 12
lea eax, [ebp-36]
push eax
call fb_StrDelete
add esp, 16
jmp .L_0600
.L_0601:
sub esp, 12
mov dword ptr [ebp-36], 0
mov dword ptr [ebp-32], 0
mov dword ptr [ebp-28], 0
push 0
push -1
sub esp, 8
push 2
push offset Lt_0144
push -1
sub esp, 4
push -1
sub esp, 12
mov eax, dword ptr [Lt_0C92]
add eax, 4
push eax
call fb_IntToStr
add esp, 16
push eax
push 15
push offset Lt_04A1
mov dword ptr [ebp-12], 0
mov dword ptr [ebp-8], 0
mov dword ptr [ebp-4], 0
lea eax, [ebp-12]
push eax
call fb_StrConcat
add esp, 24
push eax
mov dword ptr [ebp-24], 0
mov dword ptr [ebp-20], 0
mov dword ptr [ebp-16], 0
lea eax, [ebp-24]
push eax
call fb_StrConcat
add esp, 28
push eax
push -1
lea eax, [ebp-36]
push eax
call fb_StrAssign
add esp, 20
push dword ptr [ebp-36]
call OUTP
add esp, 16
sub esp, 12
lea eax, [ebp-36]
push eax
call fb_StrDelete
add esp, 16
.L_0600:
jmp .L_05FE
.L_05FF:
cmp dword ptr [Lt_0C94], 0
jne .L_060A
sub esp, 12
mov dword ptr [ebp-36], 0
mov dword ptr [ebp-32], 0
mov dword ptr [ebp-28], 0
push 0
push -1
sub esp, 8
push 2
push offset Lt_0144
push -1
sub esp, 4
push -1
sub esp, 12
mov eax, dword ptr [Lt_0C92]
add eax, 4
push eax
call fb_IntToStr
add esp, 16
push eax
push 16
push offset Lt_0602
mov dword ptr [ebp-12], 0
mov dword ptr [ebp-8], 0
mov dword ptr [ebp-4], 0
lea eax, [ebp-12]
push eax
call fb_StrConcat
add esp, 24
push eax
mov dword ptr [ebp-24], 0
mov dword ptr [ebp-20], 0
mov dword ptr [ebp-16], 0
lea eax, [ebp-24]
push eax
call fb_StrConcat
add esp, 28
push eax
push -1
lea eax, [ebp-36]
push eax
call fb_StrAssign
add esp, 20
push dword ptr [ebp-36]
call OUTP
add esp, 16
sub esp, 12
lea eax, [ebp-36]
push eax
call fb_StrDelete
add esp, 16
jmp .L_0609
.L_060A:
sub esp, 12
mov dword ptr [ebp-36], 0
mov dword ptr [ebp-32], 0
mov dword ptr [ebp-28], 0
push 0
push -1
sub esp, 8
push 2
push offset Lt_0144
push -1
sub esp, 4
push -1
sub esp, 12
mov eax, dword ptr [Lt_0C92]
add eax, 4
push eax
call fb_IntToStr
add esp, 16
push eax
push 15
push offset Lt_04A1
mov dword ptr [ebp-12], 0
mov dword ptr [ebp-8], 0
mov dword ptr [ebp-4], 0
lea eax, [ebp-12]
push eax
call fb_StrConcat
add esp, 24
push eax
mov dword ptr [ebp-24], 0
mov dword ptr [ebp-20], 0
mov dword ptr [ebp-16], 0
lea eax, [ebp-24]
push eax
call fb_StrConcat
add esp, 28
push eax
push -1
lea eax, [ebp-36]
push eax
call fb_StrAssign
add esp, 20
push dword ptr [ebp-36]
call OUTP
add esp, 16
sub esp, 12
lea eax, [ebp-36]
push eax
call fb_StrDelete
add esp, 16
.L_0609:
.L_05FE:
cmp dword ptr [ebp+8], 41
jne .L_0612
sub esp, 12
push offset Lt_0613
call OUTP
add esp, 16
sub esp, 12
mov dword ptr [ebp-24], 0
mov dword ptr [ebp-20], 0
mov dword ptr [ebp-16], 0
push 0
push -1
sub esp, 8
push 9
push offset Lt_0614
push -1
push offset Lt_0C7F
mov dword ptr [ebp-12], 0
mov dword ptr [ebp-8], 0
mov dword ptr [ebp-4], 0
lea eax, [ebp-12]
push eax
call fb_StrConcat
add esp, 28
push eax
push -1
lea eax, [ebp-24]
push eax
call fb_StrAssign
add esp, 20
push dword ptr [ebp-24]
call OUTP
add esp, 16
sub esp, 12
lea eax, [ebp-24]
push eax
call fb_StrDelete
add esp, 16
jmp .L_0611
.L_0612:
sub esp, 12
push offset Lt_0617
call OUTP
add esp, 16
sub esp, 12
mov dword ptr [ebp-24], 0
mov dword ptr [ebp-20], 0
mov dword ptr [ebp-16], 0
push 0
push -1
sub esp, 8
push 9
push offset Lt_0618
push -1
push offset Lt_0C7F
mov dword ptr [ebp-12], 0
mov dword ptr [ebp-8], 0
mov dword ptr [ebp-4], 0
lea eax, [ebp-12]
push eax
call fb_StrConcat
add esp, 28
push eax
push -1
lea eax, [ebp-24]
push eax
call fb_StrAssign
add esp, 20
push dword ptr [ebp-24]
call OUTP
add esp, 16
sub esp, 12
lea eax, [ebp-24]
push eax
call fb_StrDelete
add esp, 16
.L_0611:
sub esp, 12
push offset Lt_061B
call OUTP
add esp, 16
sub esp, 8
push dword ptr [Lt_0C91]
push offset Lt_03CF
call HBRANCH
add esp, 16
cmp dword ptr [ebp+8], 41
jne .L_061D
sub esp, 12
push offset Lt_061E
call OUTP
add esp, 16
sub esp, 12
push offset Lt_023B
call OUTP
add esp, 16
jmp .L_061C
.L_061D:
sub esp, 12
push offset Lt_061F
call OUTP
add esp, 16
mov eax, dword ptr [ebp+12]
mov ecx, dword ptr [eax+4]
and ecx, 480
je .L_0620
mov dword ptr [ebp-4], 24
jmp .L_0C7E
.L_0620:
mov ecx, dword ptr [ebp+12]
mov eax, dword ptr [ecx+4]
and eax, 31
mov dword ptr [ebp-4], eax
.L_0C7E:
mov eax, dword ptr [ebp-4]
imul eax, 28
cmp dword ptr [SYMB_DTYPETB+eax+8], 0
je .L_0623
sub esp, 12
push offset Lt_0624
call OUTP
add esp, 16
jmp .L_0622
.L_0623:
sub esp, 12
push offset Lt_0625
call OUTP
add esp, 16
.L_0622:
.L_061C:
sub esp, 12
push dword ptr [Lt_0C91]
call HLABEL
add esp, 16
cmp dword ptr [Lt_0C95], 0
jne .L_0627
sub esp, 12
push offset Lt_0085
call HPOP
add esp, 16
.L_0627:
.L_0626:
cmp dword ptr [Lt_0C97], 0
je .L_0629
mov eax, dword ptr [ebp+12]
cmp dword ptr [eax], 4
je .L_062B
sub esp, 12
push offset Lt_062C
call OUTP
add esp, 16
jmp .L_062A
.L_062B:
sub esp, 12
push offset Lt_062D
call OUTP
add esp, 16
.L_062A:
jmp .L_0628
.L_0629:
cmp dword ptr [Lt_0C94], 0
jne .L_062F
sub esp, 12
push offset Lt_062C
call OUTP
add esp, 16
jmp .L_062E
.L_062F:
sub esp, 12
push offset Lt_062D
call OUTP
add esp, 16
.L_062E:
.L_0628:
cmp dword ptr [Lt_0C96], 0
je .L_0631
mov eax, dword ptr [ebp+12]
cmp dword ptr [eax], 4
je .L_0633
sub esp, 12
push offset Lt_0634
call OUTP
add esp, 16
jmp .L_0632
.L_0633:
sub esp, 12
push offset Lt_0635
call OUTP
add esp, 16
.L_0632:
jmp .L_0630
.L_0631:
cmp dword ptr [Lt_0C93], 0
jne .L_0637
sub esp, 12
push offset Lt_0634
call OUTP
add esp, 16
jmp .L_0636
.L_0637:
sub esp, 12
push offset Lt_0635
call OUTP
add esp, 16
.L_0636:
.L_0630:
sub esp, 12
push dword ptr [Lt_0C82]
call HPOP
add esp, 16
sub esp, 12
push dword ptr [Lt_0C81]
call HPOP
add esp, 16
.L_0569:
.L_055C:
pop ebx
mov esp, ebp
pop ebp
.cfi_restore 5
.cfi_def_cfa 4, 4
ret
.size HSHIFTL, .-HSHIFTL
.cfi_endproc

.section .bss
.balign 4
	.lcomm	Lt_0C82,12
.balign 4
	.lcomm	Lt_0C81,12
.balign 4
	.lcomm	Lt_0C83,12
.balign 4
	.lcomm	Lt_0C91,12
.balign 4
	.lcomm	Lt_0C7F,12
.balign 4
	.lcomm	Lt_0C80,12
.balign 4
	.lcomm	Lt_0C8D,4
.balign 4
	.lcomm	Lt_0C8A,4
.balign 4
	.lcomm	Lt_0C8E,12
.balign 4
	.lcomm	Lt_0C84,12
.balign 4
	.lcomm	Lt_0C86,12
.balign 4
	.lcomm	Lt_0C85,4
.balign 4
	.lcomm	Lt_0C87,4
.balign 4
	.lcomm	Lt_0C93,4
.balign 4
	.lcomm	Lt_0C94,4
.balign 4
	.lcomm	Lt_0C95,4
.balign 4
	.lcomm	Lt_0C96,4
.balign 4
	.lcomm	Lt_0C97,4
.balign 4
	.lcomm	Lt_0C98,4
.balign 4
	.lcomm	Lt_0C92,4

.section .text
.balign 16
HSHIFTI:
.type HSHIFTI, @function
.cfi_startproc
push ebp
.cfi_def_cfa_offset 8
.cfi_offset 5, -8
mov ebp, esp
.cfi_def_cfa_register 5
sub esp, 4
push ebx
.L_0638:
mov eax, dword ptr [ebp+12]
mov ebx, dword ptr [eax+4]
and ebx, 480
je .L_063A
mov dword ptr [ebp-4], 24
jmp .L_0C9C
.L_063A:
mov ebx, dword ptr [ebp+12]
mov eax, dword ptr [ebx+4]
and eax, 31
mov dword ptr [ebp-4], eax
.L_0C9C:
mov eax, dword ptr [ebp-4]
imul eax, 28
cmp dword ptr [SYMB_DTYPETB+eax+8], 0
je .L_063D
cmp dword ptr [ebp+8], 41
jne .L_063F
sub esp, 12
push 0
push 4
push offset Lt_0640
push -1
push offset Lt_0C9D
call fb_StrAssign
add esp, 32
jmp .L_063E
.L_063F:
sub esp, 12
push 0
push 4
push offset Lt_0641
push -1
push offset Lt_0C9D
call fb_StrAssign
add esp, 32
.L_063E:
jmp .L_063C
.L_063D:
cmp dword ptr [ebp+8], 41
jne .L_0643
sub esp, 12
push 0
push 4
push offset Lt_0644
push -1
push offset Lt_0C9D
call fb_StrAssign
add esp, 32
jmp .L_0642
.L_0643:
sub esp, 12
push 0
push 4
push offset Lt_0645
push -1
push offset Lt_0C9D
call fb_StrAssign
add esp, 32
.L_0642:
.L_063C:
sub esp, 8
push -1
push 0
push 0
push -2147483648
push offset Lt_0C9E
push dword ptr [ebp+12]
call HPREPOPERAND
add esp, 32
mov dword ptr [Lt_0C9F], 0
mov dword ptr [Lt_0CA0], 0
mov dword ptr [Lt_0CA1], 0
mov eax, dword ptr [ebp+16]
cmp dword ptr [eax], 0
jne .L_0647
sub esp, 8
push -1
push 0
push 0
push -2147483648
push offset Lt_0CA2
push dword ptr [ebp+16]
call HPREPOPERAND
add esp, 32
sub esp, 12
push 0
push -1
push offset Lt_0C9E
push -1
push offset Lt_0CA3
call fb_StrAssign
add esp, 32
jmp .L_0646
.L_0647:
sub esp, 8
push 5
push 0
call HISREGFREE
add esp, 16
mov dword ptr [Lt_0CA4], eax
sub esp, 8
push 3
push 0
call HISREGFREE
add esp, 16
mov dword ptr [Lt_0CA5], eax
mov eax, dword ptr [ebp+16]
cmp dword ptr [eax], 4
jne .L_0649
mov eax, dword ptr [ebp+16]
mov ebx, dword ptr [eax+12]
mov dword ptr [Lt_0CA6], ebx
jmp .L_0648
.L_0649:
mov dword ptr [Lt_0CA6], -1
.L_0648:
sub esp, 8
push 3
push dword ptr [ebp+12]
call HISREGINVREG
add esp, 16
mov dword ptr [Lt_0C9F], eax
cmp dword ptr [Lt_0C9F], 0
je .L_064B
sub esp, 12
push offset Lt_0085
call HPUSH
add esp, 16
mov eax, dword ptr [ebp+12]
cmp dword ptr [eax], 4
je .L_064D
sub esp, 8
push -1
push 0
push 0
push 8
push offset Lt_0CA7
push dword ptr [ebp+12]
call HPREPOPERAND
add esp, 32
sub esp, 12
push dword ptr [Lt_0CA7]
call HPUSH
add esp, 16
.L_064D:
.L_064C:
jmp .L_064A
.L_064B:
mov eax, dword ptr [Lt_0CA6]
cmp eax, 3
setne al
shr eax, 1
sbb eax, eax
mov ebx, dword ptr [Lt_0CA5]
test ebx, ebx
sete bl
shr ebx, 1
sbb ebx, ebx
and eax, ebx
je .L_064E
mov dword ptr [Lt_0CA1], -1
sub esp, 12
push offset Lt_0085
call HPUSH
add esp, 16
.L_064E:
.L_064A:
mov ebx, dword ptr [ebp+16]
cmp dword ptr [ebx], 4
je .L_0650
sub esp, 8
push -1
push 0
push 0
push 2
push offset Lt_0CA7
push dword ptr [ebp+16]
call HPREPOPERAND
add esp, 32
sub esp, 8
push dword ptr [Lt_0CA7]
push offset Lt_0079
call HMOV
add esp, 16
jmp .L_064F
.L_0650:
cmp dword ptr [Lt_0CA6], 3
je .L_0652
sub esp, 8
mov ebx, dword ptr [DTYPETB+128]
sal ebx, 3
add ebx, dword ptr [Lt_0CA6]
lea eax, [RNAMETB+ebx*8]
push eax
push offset Lt_0085
call HMOV
add esp, 16
.L_0652:
.L_0651:
.L_064F:
cmp dword ptr [Lt_0C9F], 0
je .L_0654
cmp dword ptr [Lt_0CA4], 0
jne .L_0656
mov dword ptr [Lt_0CA0], -1
sub esp, 12
push offset Lt_04ED
call OUTP
add esp, 16
jmp .L_0655
.L_0656:
sub esp, 12
push offset Lt_0087
call HPOP
add esp, 16
.L_0655:
sub esp, 12
push 0
push 8
mov eax, dword ptr [ebp+12]
mov ebx, dword ptr [eax+4]
sal ebx, 4
mov eax, dword ptr [DTYPETB+ebx]
sal eax, 6
lea ebx, [RNAMETB+eax+40]
push ebx
push -1
push offset Lt_0CA3
call fb_StrAssign
add esp, 32
jmp .L_0653
.L_0654:
sub esp, 12
push 0
push -1
push offset Lt_0C9E
push -1
push offset Lt_0CA3
call fb_StrAssign
add esp, 32
.L_0653:
sub esp, 12
push 0
push 3
push offset Lt_0079
push -1
push offset Lt_0CA2
call fb_StrAssign
add esp, 32
.L_0646:
sub esp, 12
push 0
push -1
push offset Lt_0C9D
push -1
push offset Lt_0CA7
call fb_StrAssign
add esp, 32
sub esp, 12
push 0
push 2
push offset Lt_016E
push -1
push offset Lt_0CA7
call fb_StrConcatAssign
add esp, 32
sub esp, 12
push 0
push -1
push offset Lt_0CA3
push -1
push offset Lt_0CA7
call fb_StrConcatAssign
add esp, 32
sub esp, 12
push 0
push 3
push offset Lt_0073
push -1
push offset Lt_0CA7
call fb_StrConcatAssign
add esp, 32
sub esp, 12
push 0
push -1
push offset Lt_0CA2
push -1
push offset Lt_0CA7
call fb_StrConcatAssign
add esp, 32
sub esp, 12
push dword ptr [Lt_0CA7]
call OUTP
add esp, 16
cmp dword ptr [Lt_0C9F], 0
je .L_0658
mov ebx, dword ptr [ebp+12]
cmp dword ptr [ebx], 4
je .L_065A
sub esp, 12
push offset Lt_0085
call HPOP
add esp, 16
cmp dword ptr [Lt_0CA0], 0
je .L_065C
sub esp, 12
push offset Lt_0510
call OUTP
add esp, 16
.L_065C:
.L_065B:
.L_065A:
.L_0659:
sub esp, 8
mov ebx, dword ptr [ebp+12]
mov eax, dword ptr [ebx+4]
sal eax, 4
mov ebx, dword ptr [DTYPETB+eax]
sal ebx, 6
lea eax, [RNAMETB+ebx+40]
push eax
push dword ptr [Lt_0C9E]
call HMOV
add esp, 16
.L_0658:
.L_0657:
cmp dword ptr [Lt_0CA0], 0
je .L_065E
sub esp, 12
push offset Lt_0087
call HPOP
add esp, 16
.L_065E:
.L_065D:
cmp dword ptr [Lt_0CA1], 0
je .L_0660
sub esp, 12
push offset Lt_0085
call HPOP
add esp, 16
.L_0660:
.L_065F:
.L_0639:
pop ebx
mov esp, ebp
pop ebp
.cfi_restore 5
.cfi_def_cfa 4, 4
ret
.size HSHIFTI, .-HSHIFTI
.cfi_endproc

.section .bss
.balign 4
	.lcomm	Lt_0CA0,4
.balign 4
	.lcomm	Lt_0CA1,4
.balign 4
	.lcomm	Lt_0CA4,4
.balign 4
	.lcomm	Lt_0CA5,4
.balign 4
	.lcomm	Lt_0CA6,4
.balign 4
	.lcomm	Lt_0C9F,4
.balign 4
	.lcomm	Lt_0CA7,12
.balign 4
	.lcomm	Lt_0C9E,12
.balign 4
	.lcomm	Lt_0CA2,12
.balign 4
	.lcomm	Lt_0CA3,12
.balign 4
	.lcomm	Lt_0C9D,12

.section .text
.balign 16
_EMITSHLL:
.type _EMITSHLL, @function
.cfi_startproc
push ebp
.cfi_def_cfa_offset 8
.cfi_offset 5, -8
mov ebp, esp
.cfi_def_cfa_register 5
sub esp, 8
.L_0661:
sub esp, 4
push dword ptr [ebp+12]
push dword ptr [ebp+8]
push 41
call HSHIFTL
add esp, 16
.L_0662:
mov esp, ebp
pop ebp
.cfi_restore 5
.cfi_def_cfa 4, 4
ret
.size _EMITSHLL, .-_EMITSHLL
.cfi_endproc
.balign 16
_EMITSHLI:
.type _EMITSHLI, @function
.cfi_startproc
push ebp
.cfi_def_cfa_offset 8
.cfi_offset 5, -8
mov ebp, esp
.cfi_def_cfa_register 5
sub esp, 8
.L_0663:
sub esp, 4
push dword ptr [ebp+12]
push dword ptr [ebp+8]
push 41
call HSHIFTI
add esp, 16
.L_0664:
mov esp, ebp
pop ebp
.cfi_restore 5
.cfi_def_cfa 4, 4
ret
.size _EMITSHLI, .-_EMITSHLI
.cfi_endproc
.balign 16
_EMITSHRL:
.type _EMITSHRL, @function
.cfi_startproc
push ebp
.cfi_def_cfa_offset 8
.cfi_offset 5, -8
mov ebp, esp
.cfi_def_cfa_register 5
sub esp, 8
.L_0665:
sub esp, 4
push dword ptr [ebp+12]
push dword ptr [ebp+8]
push 42
call HSHIFTL
add esp, 16
.L_0666:
mov esp, ebp
pop ebp
.cfi_restore 5
.cfi_def_cfa 4, 4
ret
.size _EMITSHRL, .-_EMITSHRL
