	.intel_syntax noprefix

.section .text
.balign 16

.globl RTLPRINTMODINIT
RTLPRINTMODINIT:
.type RTLPRINTMODINIT, @function
.cfi_startproc
push ebp
.cfi_def_cfa_offset 8
.cfi_offset 5, -8
mov ebp, esp
.cfi_def_cfa_register 5
sub esp, 8
.L_009D:
sub esp, 12
push offset FUNCDATA
call RTLADDINTRINSICPROCS
add esp, 16
.L_009E:
mov esp, ebp
pop ebp
.cfi_restore 5
.cfi_def_cfa 4, 4
ret
.size RTLPRINTMODINIT, .-RTLPRINTMODINIT
.cfi_endproc
.balign 16

.globl RTLPRINTMODEND
RTLPRINTMODEND:
.type RTLPRINTMODEND, @function
.cfi_startproc
push ebp
.cfi_def_cfa_offset 8
.cfi_offset 5, -8
mov ebp, esp
.cfi_def_cfa_register 5
sub esp, 8
.L_009F:
.L_00A0:
mov esp, ebp
pop ebp
.cfi_restore 5
.cfi_def_cfa 4, 4
ret
.size RTLPRINTMODEND, .-RTLPRINTMODEND
.cfi_endproc
.balign 16

.globl RTLPRINT
RTLPRINT:
.type RTLPRINT, @function
.cfi_startproc
push ebp
.cfi_def_cfa_offset 8
.cfi_offset 5, -8
mov ebp, esp
.cfi_def_cfa_register 5
sub esp, 36
push ebx
mov dword ptr [ebp-4], 0
.L_00A1:
mov dword ptr [ebp-4], 0
cmp dword ptr [ebp+20], 0
jne .L_00A4
cmp dword ptr [ebp+24], 0
je .L_00A6
sub esp, 8
push 174
push offset Lt_0074
call RTLPROCLOOKUP
add esp, 16
mov dword ptr [ebp-12], eax
jmp .L_00A5
.L_00A6:
sub esp, 8
push 160
push offset Lt_0066
call RTLPROCLOOKUP
add esp, 16
mov dword ptr [ebp-12], eax
.L_00A5:
jmp .L_00A3
.L_00A4:
sub esp, 12
lea eax, [ebp+20]
push eax
call ASTTRYOVLSTRINGCONV
add esp, 16
mov eax, dword ptr [ebp+20]
mov ebx, dword ptr [eax+4]
and ebx, 511
and ebx, 480
je .L_00A7
mov dword ptr [ebp-20], 24
jmp .L_00F3
.L_00A7:
mov ebx, dword ptr [ebp+20]
mov eax, dword ptr [ebx+4]
and eax, 511
and eax, 31
mov dword ptr [ebp-20], eax
.L_00F3:
mov eax, dword ptr [ebp-20]
mov dword ptr [ebp-24], eax
cmp dword ptr [ebp-24], 20
je .L_00AC
.L_00AD:
cmp dword ptr [ebp-24], 10
jne .L_00AB
.L_00AC:
sub esp, 4
push dword ptr [ebp+20]
push 0
push 17
call ASTNEWOVLCONV
add esp, 16
mov dword ptr [ebp+20], eax
cmp dword ptr [ebp+20], 0
jne .L_00AF
jmp .L_00A2
.L_00AF:
.L_00AE:
jmp .L_00A9
.L_00AB:
mov eax, dword ptr [ebp+20]
mov ebx, dword ptr [eax+4]
and ebx, 480
test ebx, ebx
je .L_00B2
sub esp, 12
push 0
push 0
push dword ptr [ebp+20]
push 0
push 9
call ASTNEWCONV
add esp, 32
mov dword ptr [ebp+20], eax
.L_00B2:
.L_00B1:
.L_00B0:
.L_00A9:
mov eax, dword ptr [ebp+20]
mov ebx, dword ptr [eax+4]
and ebx, 511
mov eax, ebx
mov dword ptr [ebp-20], eax
jmp .L_00B4
.L_00B6:
cmp dword ptr [ebp+24], 0
je .L_00B8
sub esp, 8
push 186
push offset Lt_0080
call RTLPROCLOOKUP
add esp, 16
mov dword ptr [ebp-12], eax
jmp .L_00B7
.L_00B8:
sub esp, 8
push 172
push offset Lt_0072
call RTLPROCLOOKUP
add esp, 16
mov dword ptr [ebp-12], eax
.L_00B7:
jmp .L_00B3
.L_00B9:
cmp dword ptr [ebp+24], 0
je .L_00BB
sub esp, 8
push 187
push offset Lt_0081
call RTLPROCLOOKUP
add esp, 16
mov dword ptr [ebp-12], eax
jmp .L_00BA
.L_00BB:
sub esp, 8
push 173
push offset Lt_0073
call RTLPROCLOOKUP
add esp, 16
mov dword ptr [ebp-12], eax
.L_00BA:
jmp .L_00B3
.L_00BC:
cmp dword ptr [ebp+24], 0
je .L_00BE
sub esp, 8
push 175
push offset Lt_0075
call RTLPROCLOOKUP
add esp, 16
mov dword ptr [ebp-12], eax
jmp .L_00BD
.L_00BE:
sub esp, 8
push 161
push offset Lt_0067
call RTLPROCLOOKUP
add esp, 16
mov dword ptr [ebp-12], eax
.L_00BD:
jmp .L_00B3
.L_00BF:
mov eax, dword ptr [ebp+20]
mov ebx, dword ptr [eax+4]
and ebx, 480
je .L_00C0
mov dword ptr [ebp-24], 24
jmp .L_00F4
.L_00C0:
mov ebx, dword ptr [ebp+20]
mov eax, dword ptr [ebx+4]
and eax, 31
mov dword ptr [ebp-24], eax
.L_00F4:
mov eax, dword ptr [ebp-24]
imul eax, 28
mov ebx, dword ptr [SYMB_DTYPETB+eax+20]
mov dword ptr [ebp-28], ebx
jmp .L_00C3
.L_00C5:
cmp dword ptr [ebp+24], 0
je .L_00C7
sub esp, 8
push 176
push offset Lt_0076
call RTLPROCLOOKUP
add esp, 16
mov dword ptr [ebp-12], eax
jmp .L_00C6
.L_00C7:
sub esp, 8
push 162
push offset Lt_0068
call RTLPROCLOOKUP
add esp, 16
mov dword ptr [ebp-12], eax
.L_00C6:
jmp .L_00C2
.L_00C8:
cmp dword ptr [ebp+24], 0
je .L_00CA
sub esp, 8
push 177
push offset Lt_0077
call RTLPROCLOOKUP
add esp, 16
mov dword ptr [ebp-12], eax
jmp .L_00C9
.L_00CA:
sub esp, 8
push 163
push offset Lt_0069
call RTLPROCLOOKUP
add esp, 16
mov dword ptr [ebp-12], eax
.L_00C9:
jmp .L_00C2
.L_00CB:
cmp dword ptr [ebp+24], 0
je .L_00CD
sub esp, 8
push 178
push offset Lt_0078
call RTLPROCLOOKUP
add esp, 16
mov dword ptr [ebp-12], eax
jmp .L_00CC
.L_00CD:
sub esp, 8
push 164
push offset Lt_006A
call RTLPROCLOOKUP
add esp, 16
mov dword ptr [ebp-12], eax
.L_00CC:
jmp .L_00C2
.L_00CE:
cmp dword ptr [ebp+24], 0
je .L_00D0
sub esp, 8
push 179
push offset Lt_0079
call RTLPROCLOOKUP
add esp, 16
mov dword ptr [ebp-12], eax
jmp .L_00CF
.L_00D0:
sub esp, 8
push 165
push offset Lt_006B
call RTLPROCLOOKUP
add esp, 16
mov dword ptr [ebp-12], eax
.L_00CF:
jmp .L_00C2
.L_00D1:
cmp dword ptr [ebp+24], 0
je .L_00D3
sub esp, 8
push 180
push offset Lt_007A
call RTLPROCLOOKUP
add esp, 16
mov dword ptr [ebp-12], eax
jmp .L_00D2
.L_00D3:
sub esp, 8
push 166
push offset Lt_006C
call RTLPROCLOOKUP
add esp, 16
mov dword ptr [ebp-12], eax
.L_00D2:
jmp .L_00C2
.L_00D4:
cmp dword ptr [ebp+24], 0
je .L_00D6
sub esp, 8
push 181
push offset Lt_007B
call RTLPROCLOOKUP
add esp, 16
mov dword ptr [ebp-12], eax
jmp .L_00D5
.L_00D6:
sub esp, 8
push 167
push offset Lt_006D
call RTLPROCLOOKUP
add esp, 16
mov dword ptr [ebp-12], eax
.L_00D5:
jmp .L_00C2
.L_00D7:
cmp dword ptr [ebp+24], 0
je .L_00D9
sub esp, 8
push 182
push offset Lt_007C
call RTLPROCLOOKUP
add esp, 16
mov dword ptr [ebp-12], eax
jmp .L_00D8
.L_00D9:
sub esp, 8
push 168
push offset Lt_006E
call RTLPROCLOOKUP
add esp, 16
mov dword ptr [ebp-12], eax
.L_00D8:
jmp .L_00C2
.L_00DA:
cmp dword ptr [ebp+24], 0
je .L_00DC
sub esp, 8
push 183
push offset Lt_007D
call RTLPROCLOOKUP
add esp, 16
mov dword ptr [ebp-12], eax
jmp .L_00DB
.L_00DC:
sub esp, 8
push 169
push offset Lt_006F
call RTLPROCLOOKUP
add esp, 16
mov dword ptr [ebp-12], eax
.L_00DB:
jmp .L_00C2
.L_00C3:
mov eax, dword ptr [ebp-28]
add eax, 4294967295
cmp eax, 7
ja .L_00C2
mov eax, dword ptr [ebp-28]
jmp dword ptr [.L_00DD+eax*4-4]
.L_00DD:
.int .L_00C5
.int .L_00C8
.int .L_00CB
.int .L_00CE
.int .L_00D1
.int .L_00D4
.int .L_00D7
.int .L_00DA
.L_00C2:
jmp .L_00B3
.L_00DE:
cmp dword ptr [ebp+24], 0
je .L_00E0
sub esp, 8
push 184
push offset Lt_007E
call RTLPROCLOOKUP
add esp, 16
mov dword ptr [ebp-12], eax
jmp .L_00DF
.L_00E0:
sub esp, 8
push 170
push offset Lt_0070
call RTLPROCLOOKUP
add esp, 16
mov dword ptr [ebp-12], eax
.L_00DF:
jmp .L_00B3
.L_00E1:
cmp dword ptr [ebp+24], 0
je .L_00E3
sub esp, 8
push 185
push offset Lt_007F
call RTLPROCLOOKUP
add esp, 16
mov dword ptr [ebp-12], eax
jmp .L_00E2
.L_00E3:
sub esp, 8
push 171
push offset Lt_0071
call RTLPROCLOOKUP
add esp, 16
mov dword ptr [ebp-12], eax
.L_00E2:
jmp .L_00B3
.L_00E4:
jmp .L_00A2
jmp .L_00B3
.L_00B4:
mov eax, dword ptr [ebp-20]
add eax, 4294967295
cmp eax, 17
ja .L_00E4
mov eax, dword ptr [ebp-20]
jmp dword ptr [.L_00E5+eax*4-4]
.L_00E5:
.int .L_00BC
.int .L_00BF
.int .L_00BF
.int .L_00B6
.int .L_00BF
.int .L_00BF
.int .L_00B9
.int .L_00BF
.int .L_00BF
.int .L_00BF
.int .L_00BF
.int .L_00BF
.int .L_00BF
.int .L_00BF
.int .L_00DE
.int .L_00E1
.int .L_00B6
.int .L_00B6
.L_00B3:
.L_00A3:
sub esp, 8
push 0
push dword ptr [ebp-12]
call ASTNEWCALL
add esp, 16
mov dword ptr [ebp-8], eax
push -1
push -2147483648
push dword ptr [ebp+8]
push dword ptr [ebp-8]
call ASTNEWARG
add esp, 16
test eax, eax
jne .L_00E7
jmp .L_00A2
.L_00E7:
.L_00E6:
cmp dword ptr [ebp+20], 0
je .L_00E9
push -1
push -2147483648
push dword ptr [ebp+20]
push dword ptr [ebp-8]
call ASTNEWARG
add esp, 16
test eax, eax
jne .L_00EB
jmp .L_00A2
.L_00EB:
.L_00EA:
.L_00E9:
.L_00E8:
mov dword ptr [ebp-16], 0
cmp dword ptr [ENV+136], 3
jne .L_00ED
or dword ptr [ebp-16], 16
.L_00ED:
cmp dword ptr [ebp+12], 0
je .L_00EF
or dword ptr [ebp-16], 2
jmp .L_00EE
.L_00EF:
cmp dword ptr [ebp+16], 0
jne .L_00F0
or dword ptr [ebp-16], 1
.L_00F0:
.L_00EE:
push -1
push -2147483648
sub esp, 8
push 0
push 8
mov ebx, dword ptr [ebp-16]
mov eax, ebx
sar eax, 31
push eax
push ebx
call ASTNEWCONSTI
add esp, 24
push eax
push dword ptr [ebp-8]
call ASTNEWARG
add esp, 16
test eax, eax
jne .L_00F2
jmp .L_00A2
.L_00F2:
.L_00F1:
sub esp, 12
push dword ptr [ebp-8]
call ASTADD
add esp, 16
mov dword ptr [ebp-4], -1
.L_00A2:
mov eax, dword ptr [ebp-4]
pop ebx
mov esp, ebp
pop ebp
.cfi_restore 5
.cfi_def_cfa 4, 4
ret
.size RTLPRINT, .-RTLPRINT
.cfi_endproc
.balign 16

.globl RTLPRINTSPCTAB
RTLPRINTSPCTAB:
.type RTLPRINTSPCTAB, @function
.cfi_startproc
push ebp
.cfi_def_cfa_offset 8
.cfi_offset 5, -8
mov ebp, esp
.cfi_def_cfa_register 5
sub esp, 8
mov dword ptr [ebp-4], 0
.L_00F5:
mov dword ptr [ebp-4], 0
cmp dword ptr [ebp+20], 0
je .L_00F8
sub esp, 12
push 0
call RTLPRINTER_CB
add esp, 16
.L_00F8:
.L_00F7:
cmp dword ptr [ebp+16], 0
je .L_00FA
sub esp, 8
push 0
sub esp, 12
push 189
push offset Lt_0083
call RTLPROCLOOKUP
add esp, 20
push eax
call ASTNEWCALL
add esp, 16
mov dword ptr [ebp-8], eax
jmp .L_00F9
.L_00FA:
sub esp, 8
push 0
sub esp, 12
push 188
push offset Lt_0082
call RTLPROCLOOKUP
add esp, 20
push eax
call ASTNEWCALL
add esp, 16
mov dword ptr [ebp-8], eax
.L_00F9:
push -1
push -2147483648
push dword ptr [ebp+8]
push dword ptr [ebp-8]
call ASTNEWARG
add esp, 16
test eax, eax
jne .L_00FC
jmp .L_00F6
.L_00FC:
.L_00FB:
push -1
push -2147483648
push dword ptr [ebp+12]
push dword ptr [ebp-8]
call ASTNEWARG
add esp, 16
test eax, eax
jne .L_00FE
jmp .L_00F6
.L_00FE:
.L_00FD:
sub esp, 12
push dword ptr [ebp-8]
call ASTADD
add esp, 16
mov dword ptr [ebp-4], -1
.L_00F6:
mov eax, dword ptr [ebp-4]
mov esp, ebp
pop ebp
.cfi_restore 5
.cfi_def_cfa 4, 4
ret
.size RTLPRINTSPCTAB, .-RTLPRINTSPCTAB
.cfi_endproc
.balign 16

.globl RTLWRITE
RTLWRITE:
.type RTLWRITE, @function
.cfi_startproc
push ebp
.cfi_def_cfa_offset 8
.cfi_offset 5, -8
mov ebp, esp
.cfi_def_cfa_register 5
sub esp, 36
push ebx
mov dword ptr [ebp-4], 0
.L_00FF:
mov dword ptr [ebp-4], 0
cmp dword ptr [ebp+16], 0
jne .L_0102
sub esp, 8
push 190
push offset Lt_0084
call RTLPROCLOOKUP
add esp, 16
mov dword ptr [ebp-12], eax
jmp .L_0101
.L_0102:
sub esp, 12
lea eax, [ebp+16]
push eax
call ASTTRYOVLSTRINGCONV
add esp, 16
mov eax, dword ptr [ebp+16]
mov ebx, dword ptr [eax+4]
and ebx, 511
mov dword ptr [ebp-20], ebx
cmp dword ptr [ebp-20], 20
je .L_0106
.L_0107:
cmp dword ptr [ebp-20], 10
jne .L_0105
.L_0106:
sub esp, 4
push dword ptr [ebp+16]
push 0
push 17
call ASTNEWOVLCONV
add esp, 16
mov dword ptr [ebp+16], eax
cmp dword ptr [ebp+16], 0
jne .L_0109
jmp .L_0100
.L_0109:
.L_0108:
jmp .L_0103
.L_0105:
mov eax, dword ptr [ebp+16]
mov ebx, dword ptr [eax+4]
and ebx, 480
test ebx, ebx
je .L_010C
sub esp, 12
push 0
push 0
push dword ptr [ebp+16]
push 0
push 9
call ASTNEWCONV
add esp, 32
mov dword ptr [ebp+16], eax
.L_010C:
.L_010B:
.L_010A:
.L_0103:
mov eax, dword ptr [ebp+16]
mov ebx, dword ptr [eax+4]
and ebx, 511
mov eax, ebx
mov dword ptr [ebp-20], eax
jmp .L_010E
.L_0110:
sub esp, 8
push 202
push offset Lt_0090
call RTLPROCLOOKUP
add esp, 16
mov dword ptr [ebp-12], eax
jmp .L_010D
.L_0111:
sub esp, 8
push 203
push offset Lt_0091
call RTLPROCLOOKUP
add esp, 16
mov dword ptr [ebp-12], eax
jmp .L_010D
.L_0112:
sub esp, 8
push 191
push offset Lt_0085
call RTLPROCLOOKUP
add esp, 16
mov dword ptr [ebp-12], eax
jmp .L_010D
.L_0113:
mov eax, dword ptr [ebp+16]
mov ebx, dword ptr [eax+4]
and ebx, 480
je .L_0114
mov dword ptr [ebp-24], 24
jmp .L_0130
.L_0114:
mov ebx, dword ptr [ebp+16]
mov eax, dword ptr [ebx+4]
and eax, 31
mov dword ptr [ebp-24], eax
.L_0130:
mov eax, dword ptr [ebp-24]
imul eax, 28
mov ebx, dword ptr [SYMB_DTYPETB+eax+20]
mov dword ptr [ebp-28], ebx
jmp .L_0117
.L_0119:
sub esp, 8
push 192
push offset Lt_0086
call RTLPROCLOOKUP
add esp, 16
mov dword ptr [ebp-12], eax
jmp .L_0116
.L_011A:
sub esp, 8
push 193
push offset Lt_0087
call RTLPROCLOOKUP
add esp, 16
mov dword ptr [ebp-12], eax
jmp .L_0116
.L_011B:
sub esp, 8
push 194
push offset Lt_0088
call RTLPROCLOOKUP
add esp, 16
mov dword ptr [ebp-12], eax
jmp .L_0116
.L_011C:
sub esp, 8
push 195
push offset Lt_0089
call RTLPROCLOOKUP
add esp, 16
mov dword ptr [ebp-12], eax
jmp .L_0116
.L_011D:
sub esp, 8
push 196
push offset Lt_008A
call RTLPROCLOOKUP
add esp, 16
mov dword ptr [ebp-12], eax
jmp .L_0116
.L_011E:
sub esp, 8
push 197
push offset Lt_008B
call RTLPROCLOOKUP
add esp, 16
mov dword ptr [ebp-12], eax
jmp .L_0116
.L_011F:
sub esp, 8
push 198
push offset Lt_008C
call RTLPROCLOOKUP
add esp, 16
mov dword ptr [ebp-12], eax
jmp .L_0116
.L_0120:
sub esp, 8
push 199
push offset Lt_008D
call RTLPROCLOOKUP
add esp, 16
mov dword ptr [ebp-12], eax
jmp .L_0116
.L_0117:
mov eax, dword ptr [ebp-28]
add eax, 4294967295
cmp eax, 7
ja .L_0116
mov eax, dword ptr [ebp-28]
jmp dword ptr [.L_0121+eax*4-4]
.L_0121:
.int .L_0119
.int .L_011A
.int .L_011B
.int .L_011C
.int .L_011D
.int .L_011E
.int .L_011F
.int .L_0120
.L_0116:
jmp .L_010D
.L_0122:
sub esp, 8
push 200
push offset Lt_008E
call RTLPROCLOOKUP
add esp, 16
mov dword ptr [ebp-12], eax
jmp .L_010D
.L_0123:
sub esp, 8
push 201
push offset Lt_008F
call RTLPROCLOOKUP
add esp, 16
mov dword ptr [ebp-12], eax
jmp .L_010D
.L_0124:
jmp .L_0100
jmp .L_010D
.L_010E:
mov eax, dword ptr [ebp-20]
add eax, 4294967295
cmp eax, 17
ja .L_0124
mov eax, dword ptr [ebp-20]
jmp dword ptr [.L_0125+eax*4-4]
.L_0125:
.int .L_0112
.int .L_0113
.int .L_0113
.int .L_0110
.int .L_0113
.int .L_0113
.int .L_0111
.int .L_0113
.int .L_0113
.int .L_0113
.int .L_0113
.int .L_0113
.int .L_0113
.int .L_0113
.int .L_0122
.int .L_0123
.int .L_0110
.int .L_0110
.L_010D:
.L_0101:
sub esp, 8
push 0
push dword ptr [ebp-12]
call ASTNEWCALL
add esp, 16
mov dword ptr [ebp-8], eax
push -1
push -2147483648
push dword ptr [ebp+8]
push dword ptr [ebp-8]
call ASTNEWARG
add esp, 16
test eax, eax
jne .L_0127
jmp .L_0100
.L_0127:
.L_0126:
cmp dword ptr [ebp+16], 0
je .L_0129
push -1
push -2147483648
push dword ptr [ebp+16]
push dword ptr [ebp-8]
call ASTNEWARG
add esp, 16
test eax, eax
jne .L_012B
jmp .L_0100
.L_012B:
.L_012A:
.L_0129:
.L_0128:
mov dword ptr [ebp-16], 0
cmp dword ptr [ebp+12], 0
je .L_012D
or dword ptr [ebp-16], 2
jmp .L_012C
.L_012D:
or dword ptr [ebp-16], 1
.L_012C:
push -1
push -2147483648
sub esp, 8
push 0
push 8
mov ebx, dword ptr [ebp-16]
mov eax, ebx
sar eax, 31
push eax
push ebx
call ASTNEWCONSTI
add esp, 24
push eax
push dword ptr [ebp-8]
call ASTNEWARG
add esp, 16
test eax, eax
jne .L_012F
jmp .L_0100
.L_012F:
.L_012E:
sub esp, 12
push dword ptr [ebp-8]
call ASTADD
add esp, 16
mov dword ptr [ebp-4], -1
.L_0100:
mov eax, dword ptr [ebp-4]
pop ebx
mov esp, ebp
pop ebp
.cfi_restore 5
.cfi_def_cfa 4, 4
ret
.size RTLWRITE, .-RTLWRITE
.cfi_endproc
.balign 16

.globl RTLPRINTUSINGINIT
RTLPRINTUSINGINIT:
.type RTLPRINTUSINGINIT, @function
.cfi_startproc
push ebp
.cfi_def_cfa_offset 8
.cfi_offset 5, -8
mov ebp, esp
.cfi_def_cfa_register 5
sub esp, 24
mov dword ptr [ebp-4], 0
.L_0131:
mov dword ptr [ebp-4], 0
cmp dword ptr [ebp+12], 0
je .L_0134
sub esp, 8
push 213
push offset Lt_009B
call RTLPROCLOOKUP
add esp, 16
mov dword ptr [ebp-12], eax
jmp .L_0133
.L_0134:
sub esp, 8
push 204
push offset Lt_0092
call RTLPROCLOOKUP
add esp, 16
mov dword ptr [ebp-12], eax
.L_0133:
sub esp, 8
push 0
push dword ptr [ebp-12]
call ASTNEWCALL
add esp, 16
mov dword ptr [ebp-8], eax
push -1
push -2147483648
push dword ptr [ebp+8]
push dword ptr [ebp-8]
call ASTNEWARG
add esp, 16
test eax, eax
jne .L_0136
jmp .L_0132
.L_0136:
.L_0135:
sub esp, 12
push dword ptr [ebp-8]
call ASTADD
add esp, 16
mov dword ptr [ebp-4], -1
.L_0132:
mov eax, dword ptr [ebp-4]
mov esp, ebp
pop ebp
.cfi_restore 5
.cfi_def_cfa 4, 4
ret
.size RTLPRINTUSINGINIT, .-RTLPRINTUSINGINIT
.cfi_endproc
.balign 16

.globl RTLPRINTUSINGEND
RTLPRINTUSINGEND:
.type RTLPRINTUSINGEND, @function
.cfi_startproc
push ebp
.cfi_def_cfa_offset 8
.cfi_offset 5, -8
mov ebp, esp
.cfi_def_cfa_register 5
sub esp, 8
mov dword ptr [ebp-4], 0
.L_0137:
mov dword ptr [ebp-4], 0
cmp dword ptr [ebp+12], 0
je .L_013A
sub esp, 12
push 0
call RTLPRINTER_CB
add esp, 16
.L_013A:
.L_0139:
sub esp, 8
push 0
sub esp, 12
push 212
push offset Lt_009A
call RTLPROCLOOKUP
add esp, 20
push eax
call ASTNEWCALL
add esp, 16
mov dword ptr [ebp-8], eax
push -1
push -2147483648
push dword ptr [ebp+8]
push dword ptr [ebp-8]
call ASTNEWARG
add esp, 16
test eax, eax
jne .L_013C
jmp .L_0138
.L_013C:
.L_013B:
sub esp, 12
push dword ptr [ebp-8]
call ASTADD
add esp, 16
mov dword ptr [ebp-4], -1
.L_0138:
mov eax, dword ptr [ebp-4]
mov esp, ebp
pop ebp
.cfi_restore 5
.cfi_def_cfa 4, 4
ret
.size RTLPRINTUSINGEND, .-RTLPRINTUSINGEND
.cfi_endproc
.balign 16

.globl RTLPRINTUSING
RTLPRINTUSING:
.type RTLPRINTUSING, @function
.cfi_startproc
push ebp
.cfi_def_cfa_offset 8
.cfi_offset 5, -8
mov ebp, esp
.cfi_def_cfa_register 5
sub esp, 20
push ebx
mov dword ptr [ebp-4], 0
.L_013D:
mov dword ptr [ebp-4], 0
cmp dword ptr [ebp+24], 0
je .L_0140
sub esp, 12
push 0
call RTLPRINTER_CB
add esp, 16
.L_0140:
.L_013F:
cmp dword ptr [ebp+12], 0
jne .L_0142
jmp .L_013E
.L_0142:
.L_0141:
sub esp, 12
lea eax, [ebp+12]
push eax
call ASTTRYOVLSTRINGCONV
add esp, 16
mov eax, dword ptr [ebp+12]
mov ebx, dword ptr [eax+4]
and ebx, 511
mov dword ptr [ebp-20], ebx
cmp dword ptr [ebp-20], 20
je .L_0146
.L_0147:
cmp dword ptr [ebp-20], 10
jne .L_0145
.L_0146:
sub esp, 4
push dword ptr [ebp+12]
push 0
push 16
call ASTNEWOVLCONV
add esp, 16
mov dword ptr [ebp+12], eax
cmp dword ptr [ebp+12], 0
jne .L_0149
jmp .L_013E
.L_0149:
.L_0148:
.L_0145:
.L_0143:
mov eax, dword ptr [ebp+12]
mov ebx, dword ptr [eax+4]
and ebx, 511
mov dword ptr [ebp-20], ebx
cmp dword ptr [ebp-20], 18
je .L_014D
.L_014E:
cmp dword ptr [ebp-20], 17
je .L_014D
.L_014F:
cmp dword ptr [ebp-20], 4
jne .L_014C
.L_014D:
sub esp, 8
push 205
push offset Lt_0093
call RTLPROCLOOKUP
add esp, 16
mov dword ptr [ebp-12], eax
jmp .L_014A
.L_014C:
cmp dword ptr [ebp-20], 7
jne .L_0150
.L_0151:
sub esp, 8
push 206
push offset Lt_0094
call RTLPROCLOOKUP
add esp, 16
mov dword ptr [ebp-12], eax
jmp .L_014A
.L_0150:
cmp dword ptr [ebp-20], 15
jne .L_0152
.L_0153:
sub esp, 8
push 207
push offset Lt_0095
call RTLPROCLOOKUP
add esp, 16
mov dword ptr [ebp-12], eax
jmp .L_014A
.L_0152:
cmp dword ptr [ebp-20], 13
je .L_0155
.L_0156:
cmp dword ptr [ebp-20], 8
je .L_0155
.L_0157:
cmp dword ptr [ebp-20], 11
je .L_0155
.L_0158:
cmp dword ptr [ebp-20], 5
je .L_0155
.L_0159:
cmp dword ptr [ebp-20], 2
jne .L_0154
.L_0155:
sub esp, 8
push 209
push offset Lt_0097
call RTLPROCLOOKUP
add esp, 16
mov dword ptr [ebp-12], eax
jmp .L_014A
.L_0154:
cmp dword ptr [ebp-20], 14
je .L_015B
.L_015C:
cmp dword ptr [ebp-20], 9
je .L_015B
.L_015D:
cmp dword ptr [ebp-20], 12
je .L_015B
.L_015E:
cmp dword ptr [ebp-20], 6
je .L_015B
.L_015F:
cmp dword ptr [ebp-20], 3
jne .L_015A
.L_015B:
sub esp, 8
push 210
push offset Lt_0098
call RTLPROCLOOKUP
add esp, 16
mov dword ptr [ebp-12], eax
jmp .L_014A
.L_015A:
cmp dword ptr [ebp-20], 1
jne .L_0160
.L_0161:
sub esp, 8
push 211
push offset Lt_0099
call RTLPROCLOOKUP
add esp, 16
mov dword ptr [ebp-12], eax
jmp .L_014A
.L_0160:
sub esp, 8
push 208
push offset Lt_0096
call RTLPROCLOOKUP
add esp, 16
mov dword ptr [ebp-12], eax
.L_0162:
.L_014A:
sub esp, 8
push 0
push dword ptr [ebp-12]
call ASTNEWCALL
add esp, 16
mov dword ptr [ebp-8], eax
push -1
push -2147483648
push dword ptr [ebp+8]
push dword ptr [ebp-8]
call ASTNEWARG
add esp, 16
test eax, eax
jne .L_0164
jmp .L_013E
.L_0164:
.L_0163:
push -1
push -2147483648
push dword ptr [ebp+12]
push dword ptr [ebp-8]
call ASTNEWARG
add esp, 16
test eax, eax
jne .L_0166
jmp .L_013E
.L_0166:
.L_0165:
mov eax, dword ptr [ebp+20]
or eax, dword ptr [ebp+16]
je .L_0168
mov dword ptr [ebp-16], 0
jmp .L_0167
.L_0168:
mov dword ptr [ebp-16], -2147483647
.L_0167:
push -1
push -2147483648
sub esp, 8
push 0
push 8
mov ebx, dword ptr [ebp-16]
mov eax, ebx
sar eax, 31
push eax
push ebx
call ASTNEWCONSTI
add esp, 24
push eax
push dword ptr [ebp-8]
call ASTNEWARG
add esp, 16
test eax, eax
jne .L_016A
jmp .L_013E
.L_016A:
.L_0169:
sub esp, 12
push dword ptr [ebp-8]
call ASTADD
add esp, 16
mov dword ptr [ebp-4], -1
.L_013E:
mov eax, dword ptr [ebp-4]
pop ebx
mov esp, ebp
pop ebp
.cfi_restore 5
.cfi_def_cfa 4, 4
ret
.size RTLPRINTUSING, .-RTLPRINTUSING
.cfi_endproc
.balign 16

.globl RTLWIDTHDEV
RTLWIDTHDEV:
.type RTLWIDTHDEV, @function
.cfi_startproc
push ebp
.cfi_def_cfa_offset 8
.cfi_offset 5, -8
mov ebp, esp
.cfi_def_cfa_register 5
sub esp, 8
mov dword ptr [ebp-4], 0
.L_016B:
mov dword ptr [ebp-4], 0
sub esp, 12
push 0
call RTLPRINTER_CB
add esp, 16
sub esp, 8
push 0
sub esp, 12
push 290
push offset Lt_016D
call RTLPROCLOOKUP
add esp, 20
push eax
call ASTNEWCALL
add esp, 16
mov dword ptr [ebp-8], eax
push -1
push -2147483648
push dword ptr [ebp+8]
push dword ptr [ebp-8]
call ASTNEWARG
add esp, 16
test eax, eax
jne .L_016F
jmp .L_016C
.L_016F:
.L_016E:
push -1
push -2147483648
push dword ptr [ebp+12]
push dword ptr [ebp-8]
call ASTNEWARG
add esp, 16
test eax, eax
jne .L_0171
jmp .L_016C
.L_0171:
.L_0170:
cmp dword ptr [ebp+16], 0
jne .L_0173
sub esp, 12
push dword ptr [ebp-8]
call RTLERRORCHECK
add esp, 4
push eax
call ASTADD
add esp, 16
.L_0173:
.L_0172:
mov eax, dword ptr [ebp-8]
mov dword ptr [ebp-4], eax
.L_016C:
mov eax, dword ptr [ebp-4]
mov esp, ebp
pop ebp
.cfi_restore 5
.cfi_def_cfa 4, 4
ret
.size RTLWIDTHDEV, .-RTLWIDTHDEV
.cfi_endproc
.balign 16

.globl RTLPRINTER_CB
RTLPRINTER_CB:
.type RTLPRINTER_CB, @function
.cfi_startproc
push ebp
.cfi_def_cfa_offset 8
.cfi_offset 5, -8
mov ebp, esp
.cfi_def_cfa_register 5
sub esp, 8
mov dword ptr [ebp-4], 0
.L_0174:
call FBRESTARTGETCOUNT
cmp dword ptr [Lt_0181], eax
je .L_0177
call FBRESTARTGETCOUNT
mov dword ptr [Lt_0181], eax
mov dword ptr [Lt_0182], 0
.L_0177:
.L_0176:
cmp dword ptr [Lt_0182], 0
jne .L_0179
mov dword ptr [Lt_0182], -1
mov eax, dword ptr [ENV+108]
mov dword ptr [ebp-8], eax
cmp dword ptr [ebp-8], 0
je .L_017D
.L_017E:
cmp dword ptr [ebp-8], 1
jne .L_017C
.L_017D:
sub esp, 12
push offset Lt_017F
call FBADDLIB
add esp, 16
sub esp, 12
push offset Lt_0180
call FBADDLIB
add esp, 16
.L_017C:
.L_017A:
.L_0179:
.L_0178:
mov dword ptr [ebp-4], -1
.L_0175:
mov eax, dword ptr [ebp-4]
mov esp, ebp
pop ebp
.cfi_restore 5
.cfi_def_cfa 4, 4
ret
.size RTLPRINTER_CB, .-RTLPRINTER_CB
.cfi_endproc

.section .bss
.balign 4
	.lcomm	Lt_0181,4

.section .data
.balign 4
Lt_0182:
.int 0

.section .text
.balign 16
fb_ctor__rtlzprint:
.type fb_ctor__rtlzprint, @function
.cfi_startproc
push ebp
.cfi_def_cfa_offset 8
.cfi_offset 5, -8
mov ebp, esp
.cfi_def_cfa_register 5
sub esp, 8
.L_0002:
.L_0003:
mov esp, ebp
pop ebp
.cfi_restore 5
.cfi_def_cfa 4, 4
ret
.size fb_ctor__rtlzprint, .-fb_ctor__rtlzprint
.cfi_endproc
.balign 16
_ZN11TSTRSETITEMaSERKS_:
.type _ZN11TSTRSETITEMaSERKS_, @function
.cfi_startproc
push ebp
.cfi_def_cfa_offset 8
.cfi_offset 5, -8
mov ebp, esp
.cfi_def_cfa_register 5
sub esp, 4
push ebx
.L_0012:
sub esp, 12
push 0
push -1
mov eax, dword ptr [ebp+12]
lea ebx, [eax]
push ebx
push -1
mov ebx, dword ptr [ebp+8]
lea eax, [ebx]
push eax
call fb_StrAssign
add esp, 32
mov eax, dword ptr [ebp+12]
add eax, 12
mov ebx, dword ptr [ebp+8]
add ebx, 12
mov ecx, dword ptr [eax]
mov dword ptr [ebx], ecx
mov ecx, dword ptr [ebp+12]
add ecx, 16
mov ebx, dword ptr [ebp+8]
add ebx, 16
mov eax, dword ptr [ecx]
mov dword ptr [ebx], eax
.L_0013:
pop ebx
mov esp, ebp
pop ebp
.cfi_restore 5
.cfi_def_cfa 4, 4
ret
.size _ZN11TSTRSETITEMaSERKS_, .-_ZN11TSTRSETITEMaSERKS_
.cfi_endproc

.section .bss
.balign 4
	.lcomm	Lt_0059,36
.balign 4
	.lcomm	Lt_005A,36
.balign 4
	.lcomm	Lt_005B,48

.section .data
.balign 4
FUNCDATA:
.int Lt_0066
.long 0
.int 0
.int -1
.long 0
.int 0
.int 2
.int 523
.int 1
.int -1
.int 0
.int 523
.int 1
.int 0
.skip 4,0
.skip 224,0
.int Lt_0067
.long 0
.int 0
.int -1
.long 0
.int 128
.int 3
.int 523
.int 1
.int -1
.int 0
.int 513
.int 1
.int 0
.skip 4,0
.int 523
.int 1
.int 0
.skip 4,0
.skip 208,0
.int Lt_0068
.long 0
.int 0
.int -1
.long 0
.int 0
.int 3
.int 523
.int 1
.int -1
.int 0
.int 514
.int 1
.int 0
.skip 4,0
.int 523
.int 1
.int 0
.skip 4,0
.skip 208,0
.int Lt_0069
.long 0
.int 0
.int -1
.long 0
.int 0
.int 3
.int 523
.int 1
.int -1
.int 0
.int 515
.int 1
.int 0
.skip 4,0
.int 523
.int 1
.int 0
.skip 4,0
.skip 208,0
.int Lt_006A
.long 0
.int 0
.int -1
.long 0
.int 0
.int 3
.int 523
.int 1
.int -1
.int 0
.int 517
.int 1
.int 0
.skip 4,0
.int 523
.int 1
.int 0
.skip 4,0
.skip 208,0
.int Lt_006B
.long 0
.int 0
.int -1
.long 0
.int 0
.int 3
.int 523
.int 1
.int -1
.int 0
.int 518
.int 1
.int 0
.skip 4,0
.int 523
.int 1
.int 0
.skip 4,0
.skip 208,0
.int Lt_006C
.long 0
.int 0
.int -1
.long 0
.int 0
.int 3
.int 523
.int 1
.int -1
.int 0
.int 523
.int 1
.int 0
.skip 4,0
.int 523
.int 1
.int 0
.skip 4,0
.skip 208,0
.int Lt_006D
.long 0
.int 0
.int -1
.long 0
.int 0
.int 3
.int 523
.int 1
.int -1
.int 0
.int 524
.int 1
.int 0
.skip 4,0
.int 523
.int 1
.int 0
.skip 4,0
.skip 208,0
.int Lt_006E
.long 0
.int 0
.int -1
.long 0
.int 0
.int 3
.int 523
.int 1
.int -1
.int 0
.int 525
.int 1
.int 0
.skip 4,0
.int 523
.int 1
.int 0
.skip 4,0
.skip 208,0
.int Lt_006F
.long 0
.int 0
.int -1
.long 0
.int 0
.int 3
.int 523
.int 1
.int -1
.int 0
.int 526
.int 1
.int 0
.skip 4,0
.int 523
.int 1
.int 0
.skip 4,0
.skip 208,0
.int Lt_0070
.long 0
.int 0
.int -1
.long 0
.int 0
.int 3
.int 523
.int 1
.int -1
.int 0
.int 527
.int 1
.int 0
.skip 4,0
.int 523
.int 1
.int 0
.skip 4,0
.skip 208,0
.int Lt_0071
.long 0
.int 0
.int -1
.long 0
.int 0
.int 3
.int 523
.int 1
.int -1
.int 0
.int 528
.int 1
.int 0
.skip 4,0
.int 523
.int 1
.int 0
.skip 4,0
.skip 208,0
.int Lt_0072
.long 0
.int 0
.int -1
.long 0
.int 0
.int 3
.int 523
.int 1
.int -1
.int 0
.int 529
.int 2
.int 0
.skip 4,0
.int 523
.int 1
.int 0
.skip 4,0
.skip 208,0
.int Lt_0073
.long 0
.int 0
.int -1
.long 0
.int 0
.int 3
.int 523
.int 1
.int -1
.int 0
.int 1063
.int 1
.int 0
.skip 4,0
.int 523
.int 1
.int 0
.skip 4,0
.skip 208,0
.int Lt_0074
.long 0
.int 0
.int -1
.int RTLPRINTER_CB
.int 0
.int 2
.int 523
.int 1
.int -1
.int 0
.int 523
.int 1
.int 0
.skip 4,0
.skip 224,0
.int Lt_0075
.long 0
.int 0
.int -1
.int RTLPRINTER_CB
.int 128
.int 3
.int 523
.int 1
.int -1
.int 0
.int 513
.int 1
.int 0
.skip 4,0
.int 523
.int 1
.int 0
.skip 4,0
.skip 208,0
.int Lt_0076
.long 0
.int 0
.int -1
.int RTLPRINTER_CB
.int 0
.int 3
.int 523
.int 1
.int -1
.int 0
.int 514
.int 1
.int 0
.skip 4,0
.int 523
.int 1
.int 0
.skip 4,0
.skip 208,0
.int Lt_0077
.long 0
.int 0
.int -1
.int RTLPRINTER_CB
.int 0
.int 3
.int 523
.int 1
.int -1
.int 0
.int 515
.int 1
.int 0
.skip 4,0
.int 523
.int 1
.int 0
.skip 4,0
.skip 208,0
.int Lt_0078
.long 0
.int 0
.int -1
.int RTLPRINTER_CB
.int 0
.int 3
.int 523
.int 1
.int -1
.int 0
.int 517
.int 1
.int 0
.skip 4,0
.int 523
.int 1
.int 0
.skip 4,0
.skip 208,0
.int Lt_0079
.long 0
.int 0
.int -1
.int RTLPRINTER_CB
.int 0
.int 3
.int 523
.int 1
.int -1
.int 0
.int 518
.int 1
.int 0
.skip 4,0
.int 523
.int 1
.int 0
.skip 4,0
.skip 208,0
.int Lt_007A
.long 0
.int 0
.int -1
.int RTLPRINTER_CB
.int 0
.int 3
.int 523
.int 1
.int -1
.int 0
.int 523
.int 1
.int 0
.skip 4,0
.int 523
.int 1
.int 0
.skip 4,0
.skip 208,0
.int Lt_007B
.long 0
.int 0
.int -1
.int RTLPRINTER_CB
.int 0
.int 3
.int 523
.int 1
.int -1
.int 0
.int 524
.int 1
.int 0
.skip 4,0
.int 523
.int 1
.int 0
.skip 4,0
.skip 208,0
.int Lt_007C
.long 0
.int 0
.int -1
.int RTLPRINTER_CB
.int 0
.int 3
.int 523
.int 1
.int -1
.int 0
.int 525
.int 1
.int 0
.skip 4,0
.int 523
.int 1
.int 0
.skip 4,0
.skip 208,0
.int Lt_007D
.long 0
.int 0
.int -1
.int RTLPRINTER_CB
.int 0
.int 3
.int 523
.int 1
.int -1
.int 0
.int 526
.int 1
.int 0
.skip 4,0
.int 523
.int 1
.int 0
.skip 4,0
.skip 208,0
.int Lt_007E
.long 0
.int 0
.int -1
.int RTLPRINTER_CB
.int 0
.int 3
.int 523
.int 1
.int -1
.int 0
.int 527
.int 1
.int 0
.skip 4,0
.int 523
.int 1
.int 0
.skip 4,0
.skip 208,0
.int Lt_007F
.long 0
.int 0
.int -1
.int RTLPRINTER_CB
.int 0
.int 3
.int 523
.int 1
.int -1
.int 0
.int 528
.int 1
.int 0
.skip 4,0
.int 523
.int 1
.int 0
.skip 4,0
.skip 208,0
.int Lt_0080
.long 0
.int 0
.int -1
.int RTLPRINTER_CB
.int 0
.int 3
.int 523
.int 1
.int -1
.int 0
.int 529
.int 2
.int 0
.skip 4,0
.int 523
.int 1
.int 0
.skip 4,0
.skip 208,0
.int Lt_0081
.long 0
.int 0
.int -1
.int RTLPRINTER_CB
.int 0
.int 3
.int 523
.int 1
.int -1
.int 0
.int 1063
.int 1
.int 0
.skip 4,0
.int 523
.int 1
.int 0
.skip 4,0
.skip 208,0
.int Lt_0082
.long 0
.int 0
.int -1
.long 0
.int 0
.int 2
.int 523
.int 1
.int -1
.int 0
.int 520
.int 1
.int 0
.skip 4,0
.skip 224,0
.int Lt_0083
.long 0
.int 0
.int -1
.long 0
.int 0
.int 2
.int 523
.int 1
.int -1
.int 0
.int 523
.int 1
.int 0
.skip 4,0
.skip 224,0
.int Lt_0084
.long 0
.int 0
.int -1
.long 0
.int 0
.int 2
.int 523
.int 1
.int -1
.int 0
.int 523
.int 1
.int 0
.skip 4,0
.skip 224,0
.int Lt_0085
.long 0
.int 0
.int -1
.long 0
.int 128
.int 3
.int 523
.int 1
.int -1
.int 0
.int 513
.int 1
.int 0
.skip 4,0
.int 523
.int 1
.int 0
.skip 4,0
.skip 208,0
.int Lt_0086
.long 0
.int 0
.int -1
.long 0
.int 0
.int 3
.int 523
.int 1
.int -1
.int 0
.int 514
.int 1
.int 0
.skip 4,0
.int 523
.int 1
.int 0
.skip 4,0
.skip 208,0
.int Lt_0087
.long 0
.int 0
.int -1
.long 0
.int 0
.int 3
.int 523
.int 1
.int -1
.int 0
.int 515
.int 1
.int 0
.skip 4,0
.int 523
.int 1
.int 0
.skip 4,0
.skip 208,0
.int Lt_0088
.long 0
.int 0
.int -1
.long 0
.int 0
.int 3
.int 523
.int 1
.int -1
.int 0
.int 517
.int 1
.int 0
.skip 4,0
.int 523
.int 1
.int 0
.skip 4,0
.skip 208,0
.int Lt_0089
.long 0
.int 0
.int -1
.long 0
.int 0
.int 3
.int 523
.int 1
.int -1
.int 0
.int 518
.int 1
.int 0
.skip 4,0
.int 523
.int 1
.int 0
.skip 4,0
.skip 208,0
.int Lt_008A
.long 0
.int 0
.int -1
.long 0
.int 0
.int 3
.int 523
.int 1
.int -1
.int 0
.int 523
.int 1
.int 0
.skip 4,0
.int 523
.int 1
.int 0
.skip 4,0
.skip 208,0
.int Lt_008B
.long 0
.int 0
.int -1
.long 0
.int 0
.int 3
.int 523
.int 1
.int -1
.int 0
.int 524
.int 1
.int 0
.skip 4,0
.int 523
.int 1
.int 0
.skip 4,0
.skip 208,0
.int Lt_008C
.long 0
.int 0
.int -1
.long 0
.int 0
.int 3
.int 523
.int 1
.int -1
.int 0
.int 525
.int 1
.int 0
.skip 4,0
.int 523
.int 1
.int 0
.skip 4,0
.skip 208,0
.int Lt_008D
.long 0
.int 0
.int -1
.long 0
.int 0
.int 3
.int 523
.int 1
.int -1
.int 0
.int 526
.int 1
.int 0
.skip 4,0
.int 523
.int 1
.int 0
.skip 4,0
.skip 208,0
.int Lt_008E
.long 0
.int 0
.int -1
.long 0
.int 0
.int 3
.int 523
.int 1
.int -1
.int 0
.int 527
.int 1
.int 0
.skip 4,0
.int 523
.int 1
.int 0
.skip 4,0
.skip 208,0
.int Lt_008F
.long 0
.int 0
.int -1
.long 0
.int 0
.int 3
.int 523
.int 1
.int -1
.int 0
.int 528
.int 1
.int 0
.skip 4,0
.int 523
.int 1
.int 0
.skip 4,0
.skip 208,0
.int Lt_0090
.long 0
.int 0
.int -1
.long 0
.int 0
.int 3
.int 523
.int 1
.int -1
.int 0
.int 529
.int 2
.int 0
.skip 4,0
.int 523
.int 1
.int 0
.skip 4,0
.skip 208,0
.int Lt_0091
.long 0
.int 0
.int -1
.long 0
.int 0
.int 3
.int 523
.int 1
.int -1
.int 0
.int 1063
.int 1
.int 0
.skip 4,0
.int 523
.int 1
.int 0
.skip 4,0
.skip 208,0
.int Lt_0092
.long 0
.int 11
.int -1
.long 0
.int 0
.int 1
.int 529
.int 2
.int 0
.skip 4,0
.skip 240,0
.int Lt_0093
.long 0
.int 11
.int -1
.long 0
.int 0
.int 3
.int 523
.int 1
.int 0
.skip 4,0
.int 529
.int 2
.int 0
.skip 4,0
.int 523
.int 1
.int 0
.skip 4,0
.skip 208,0
.int Lt_0094
.long 0
.int 11
.int -1
.long 0
.int 0
.int 3
.int 523
.int 1
.int 0
.skip 4,0
.int 1063
.int 1
.int 0
.skip 4,0
.int 523
.int 1
.int 0
.skip 4,0
.skip 208,0
.int Lt_0095
.long 0
.int 11
.int -1
.long 0
.int 0
.int 3
.int 523
.int 1
.int 0
.skip 4,0
.int 527
.int 1
.int 0
.skip 4,0
.int 523
.int 1
.int 0
.skip 4,0
.skip 208,0
.int Lt_0096
.long 0
.int 11
.int -1
.long 0
.int 0
.int 3
.int 523
.int 1
.int 0
.skip 4,0
.int 528
.int 1
.int 0
.skip 4,0
.int 523
.int 1
.int 0
.skip 4,0
.skip 208,0
.int Lt_0097
.long 0
.int 11
.int -1
.long 0
.int 0
.int 3
.int 523
.int 1
.int 0
.skip 4,0
.int 525
.int 1
.int 0
.skip 4,0
.int 523
.int 1
.int 0
.skip 4,0
.skip 208,0
.int Lt_0098
.long 0
.int 11
.int -1
.long 0
.int 0
.int 3
.int 523
.int 1
.int 0
.skip 4,0
.int 526
.int 1
.int 0
.skip 4,0
.int 523
.int 1
.int 0
.skip 4,0
.skip 208,0
.int Lt_0099
.long 0
.int 11
.int -1
.long 0
.int 0
.int 3
.int 523
.int 1
.int 0
.skip 4,0
.int 513
.int 1
.int 0
.skip 4,0
.int 523
.int 1
.int 0
.skip 4,0
.skip 208,0
.int Lt_009A
.long 0
.int 11
.int -1
.long 0
.int 0
.int 1
.int 523
.int 1
.int 0
.skip 4,0
.skip 240,0
.int Lt_009B
.long 0
.int 11
.int -1
.int RTLPRINTER_CB
.int 0
.int 1
.int 529
.int 2
.int 0
.skip 4,0
.skip 240,0
.long 0
.skip 280,0

.section .rodata
.balign 4
Lt_0066:	.ascii	"fb_PrintVoid\0"
.balign 4
Lt_0067:	.ascii	"fb_PrintBool\0"
.balign 4
Lt_0068:	.ascii	"fb_PrintByte\0"
.balign 4
Lt_0069:	.ascii	"fb_PrintUByte\0"
.balign 4
Lt_006A:	.ascii	"fb_PrintShort\0"
.balign 4
Lt_006B:	.ascii	"fb_PrintUShort\0"
.balign 4
Lt_006C:	.ascii	"fb_PrintInt\0"
.balign 4
Lt_006D:	.ascii	"fb_PrintUInt\0"
.balign 4
Lt_006E:	.ascii	"fb_PrintLongint\0"
.balign 4
Lt_006F:	.ascii	"fb_PrintULongint\0"
.balign 4
Lt_0070:	.ascii	"fb_PrintSingle\0"
.balign 4
Lt_0071:	.ascii	"fb_PrintDouble\0"
.balign 4
Lt_0072:	.ascii	"fb_PrintString\0"
.balign 4
Lt_0073:	.ascii	"fb_PrintWstr\0"
.balign 4
Lt_0074:	.ascii	"fb_LPrintVoid\0"
.balign 4
Lt_0075:	.ascii	"fb_LPrintBool\0"
.balign 4
Lt_0076:	.ascii	"fb_LPrintByte\0"
.balign 4
Lt_0077:	.ascii	"fb_LPrintUByte\0"
.balign 4
Lt_0078:	.ascii	"fb_LPrintShort\0"
.balign 4
Lt_0079:	.ascii	"fb_LPrintUShort\0"
.balign 4
Lt_007A:	.ascii	"fb_LPrintInt\0"
.balign 4
Lt_007B:	.ascii	"fb_LPrintUInt\0"
.balign 4
Lt_007C:	.ascii	"fb_LPrintLongint\0"
.balign 4
Lt_007D:	.ascii	"fb_LPrintULongint\0"
.balign 4
Lt_007E:	.ascii	"fb_LPrintSingle\0"
.balign 4
Lt_007F:	.ascii	"fb_LPrintDouble\0"
.balign 4
Lt_0080:	.ascii	"fb_LPrintString\0"
.balign 4
Lt_0081:	.ascii	"fb_LPrintWstr\0"
.balign 4
Lt_0082:	.ascii	"fb_PrintSPC\0"
.balign 4
Lt_0083:	.ascii	"fb_PrintTab\0"
.balign 4
Lt_0084:	.ascii	"fb_WriteVoid\0"
.balign 4
Lt_0085:	.ascii	"fb_WriteBool\0"
.balign 4
Lt_0086:	.ascii	"fb_WriteByte\0"
.balign 4
Lt_0087:	.ascii	"fb_WriteUByte\0"
.balign 4
Lt_0088:	.ascii	"fb_WriteShort\0"
.balign 4
Lt_0089:	.ascii	"fb_WriteUShort\0"
.balign 4
Lt_008A:	.ascii	"fb_WriteInt\0"
.balign 4
Lt_008B:	.ascii	"fb_WriteUInt\0"
.balign 4
Lt_008C:	.ascii	"fb_WriteLongint\0"
.balign 4
Lt_008D:	.ascii	"fb_WriteULongint\0"
.balign 4
Lt_008E:	.ascii	"fb_WriteSingle\0"
.balign 4
Lt_008F:	.ascii	"fb_WriteDouble\0"
.balign 4
Lt_0090:	.ascii	"fb_WriteString\0"
.balign 4
Lt_0091:	.ascii	"fb_WriteWstr\0"
.balign 4
Lt_0092:	.ascii	"fb_PrintUsingInit\0"
.balign 4
Lt_0093:	.ascii	"fb_PrintUsingStr\0"
.balign 4
Lt_0094:	.ascii	"fb_PrintUsingWstr\0"
.balign 4
Lt_0095:	.ascii	"fb_PrintUsingSingle\0"
.balign 4
Lt_0096:	.ascii	"fb_PrintUsingDouble\0"
.balign 4
Lt_0097:	.ascii	"fb_PrintUsingLongint\0"
.balign 4
Lt_0098:	.ascii	"fb_PrintUsingULongint\0"
.balign 4
Lt_0099:	.ascii	"fb_PrintUsingBoolean\0"
.balign 4
Lt_009A:	.ascii	"fb_PrintUsingEnd\0"
.balign 4
Lt_009B:	.ascii	"fb_LPrintUsingInit\0"
.balign 4
Lt_016D:	.ascii	"fb_WidthDev\0"
.balign 4
Lt_017F:	.ascii	"winspool\0"
.balign 4
Lt_0180:	.ascii	"gdi32\0"

.section .ctors, "aw", @progbits
.int fb_ctor__rtlzprint
