	.intel_syntax noprefix

.section .text
.balign 16

.globl RTLSTRINGMODINIT
RTLSTRINGMODINIT:
.type RTLSTRINGMODINIT, @function
.cfi_startproc
push ebp
.cfi_def_cfa_offset 8
.cfi_offset 5, -8
mov ebp, esp
.cfi_def_cfa_register 5
sub esp, 8
.L_012B:
sub esp, 12
push offset FUNCDATA
call RTLADDINTRINSICPROCS
add esp, 16
.L_012C:
mov esp, ebp
pop ebp
.cfi_restore 5
.cfi_def_cfa 4, 4
ret
.size RTLSTRINGMODINIT, .-RTLSTRINGMODINIT
.cfi_endproc
.balign 16

.globl RTLSTRINGMODEND
RTLSTRINGMODEND:
.type RTLSTRINGMODEND, @function
.cfi_startproc
push ebp
.cfi_def_cfa_offset 8
.cfi_offset 5, -8
mov ebp, esp
.cfi_def_cfa_register 5
sub esp, 8
.L_012D:
.L_012E:
mov esp, ebp
pop ebp
.cfi_restore 5
.cfi_def_cfa 4, 4
ret
.size RTLSTRINGMODEND, .-RTLSTRINGMODEND
.cfi_endproc
.balign 16

.globl RTLSTRCOMPARE
RTLSTRCOMPARE:
.type RTLSTRCOMPARE, @function
.cfi_startproc
push ebp
.cfi_def_cfa_offset 8
.cfi_offset 5, -8
mov ebp, esp
.cfi_def_cfa_register 5
sub esp, 24
mov dword ptr [ebp-4], 0
.L_012F:
mov dword ptr [ebp-4], 0
sub esp, 8
push 0
sub esp, 12
push 6
push offset Lt_006B
call RTLPROCLOOKUP
add esp, 20
push eax
call ASTNEWCALL
add esp, 16
mov dword ptr [ebp-8], eax
sub esp, 8
push dword ptr [ebp+12]
push dword ptr [ebp+8]
call RTLCALCSTRLEN
add esp, 16
mov dword ptr [ebp-16], eax
mov dword ptr [ebp-12], edx
sub esp, 8
push dword ptr [ebp+20]
push dword ptr [ebp+16]
call RTLCALCSTRLEN
add esp, 16
mov dword ptr [ebp-24], eax
mov dword ptr [ebp-20], edx
push -1
push dword ptr [ebp+12]
push dword ptr [ebp+8]
push dword ptr [ebp-8]
call ASTNEWARG
add esp, 16
test eax, eax
jne .L_0132
jmp .L_0130
.L_0132:
.L_0131:
push -1
push -2147483648
sub esp, 8
push 0
push 8
push dword ptr [ebp-12]
push dword ptr [ebp-16]
call ASTNEWCONSTI
add esp, 24
push eax
push dword ptr [ebp-8]
call ASTNEWARG
add esp, 16
test eax, eax
jne .L_0134
jmp .L_0130
.L_0134:
.L_0133:
push -1
push dword ptr [ebp+20]
push dword ptr [ebp+16]
push dword ptr [ebp-8]
call ASTNEWARG
add esp, 16
test eax, eax
jne .L_0136
jmp .L_0130
.L_0136:
.L_0135:
push -1
push -2147483648
sub esp, 8
push 0
push 8
push dword ptr [ebp-20]
push dword ptr [ebp-24]
call ASTNEWCONSTI
add esp, 24
push eax
push dword ptr [ebp-8]
call ASTNEWARG
add esp, 16
test eax, eax
jne .L_0138
jmp .L_0130
.L_0138:
.L_0137:
mov eax, dword ptr [ebp-8]
mov dword ptr [ebp-4], eax
.L_0130:
mov eax, dword ptr [ebp-4]
mov esp, ebp
pop ebp
.cfi_restore 5
.cfi_def_cfa 4, 4
ret
.size RTLSTRCOMPARE, .-RTLSTRCOMPARE
.cfi_endproc
.balign 16

.globl RTLWSTRCOMPARE
RTLWSTRCOMPARE:
.type RTLWSTRCOMPARE, @function
.cfi_startproc
push ebp
.cfi_def_cfa_offset 8
.cfi_offset 5, -8
mov ebp, esp
.cfi_def_cfa_register 5
sub esp, 8
mov dword ptr [ebp-4], 0
.L_0139:
mov dword ptr [ebp-4], 0
sub esp, 8
push 0
sub esp, 12
push 81
push offset Lt_006C
call RTLPROCLOOKUP
add esp, 20
push eax
call ASTNEWCALL
add esp, 16
mov dword ptr [ebp-8], eax
push -1
push -2147483648
push dword ptr [ebp+8]
push dword ptr [ebp-8]
call ASTNEWARG
add esp, 16
test eax, eax
jne .L_013C
jmp .L_013A
.L_013C:
.L_013B:
push -1
push -2147483648
push dword ptr [ebp+12]
push dword ptr [ebp-8]
call ASTNEWARG
add esp, 16
test eax, eax
jne .L_013E
jmp .L_013A
.L_013E:
.L_013D:
mov eax, dword ptr [ebp-8]
mov dword ptr [ebp-4], eax
.L_013A:
mov eax, dword ptr [ebp-4]
mov esp, ebp
pop ebp
.cfi_restore 5
.cfi_def_cfa 4, 4
ret
.size RTLWSTRCOMPARE, .-RTLWSTRCOMPARE
.cfi_endproc
.balign 16

.globl RTLSTRCONCAT
RTLSTRCONCAT:
.type RTLSTRCONCAT, @function
.cfi_startproc
push ebp
.cfi_def_cfa_offset 8
.cfi_offset 5, -8
mov ebp, esp
.cfi_def_cfa_register 5
sub esp, 40
mov dword ptr [ebp-4], 0
.L_013F:
mov dword ptr [ebp-4], 0
sub esp, 8
push 0
sub esp, 12
push 4
push offset Lt_0066
call RTLPROCLOOKUP
add esp, 20
push eax
call ASTNEWCALL
add esp, 16
mov dword ptr [ebp-8], eax
sub esp, 8
push 0
push 17
call SYMBADDTEMPVAR
add esp, 16
mov dword ptr [ebp-28], eax
push -1
push -2147483648
sub esp, 12
push 2
sub esp, 4
push 0
push -2147483648
push 0
push 0
push dword ptr [ebp-28]
call ASTNEWVAR
add esp, 24
push eax
push dword ptr [ebp-28]
call ASTBUILDTEMPVARCLEAR
add esp, 4
push eax
call ASTNEWLINK
add esp, 24
push eax
push dword ptr [ebp-8]
call ASTNEWARG
add esp, 16
test eax, eax
jne .L_0142
jmp .L_0140
.L_0142:
.L_0141:
sub esp, 8
push dword ptr [ebp+12]
push dword ptr [ebp+8]
call RTLCALCSTRLEN
add esp, 16
mov dword ptr [ebp-16], eax
mov dword ptr [ebp-12], edx
sub esp, 8
push dword ptr [ebp+20]
push dword ptr [ebp+16]
call RTLCALCSTRLEN
add esp, 16
mov dword ptr [ebp-24], eax
mov dword ptr [ebp-20], edx
push -1
push dword ptr [ebp+12]
push dword ptr [ebp+8]
push dword ptr [ebp-8]
call ASTNEWARG
add esp, 16
test eax, eax
jne .L_0144
jmp .L_0140
.L_0144:
.L_0143:
push -1
push -2147483648
sub esp, 8
push 0
push 8
push dword ptr [ebp-12]
push dword ptr [ebp-16]
call ASTNEWCONSTI
add esp, 24
push eax
push dword ptr [ebp-8]
call ASTNEWARG
add esp, 16
test eax, eax
jne .L_0146
jmp .L_0140
.L_0146:
.L_0145:
push -1
push dword ptr [ebp+20]
push dword ptr [ebp+16]
push dword ptr [ebp-8]
call ASTNEWARG
add esp, 16
test eax, eax
jne .L_0148
jmp .L_0140
.L_0148:
.L_0147:
push -1
push -2147483648
sub esp, 8
push 0
push 8
push dword ptr [ebp-20]
push dword ptr [ebp-24]
call ASTNEWCONSTI
add esp, 24
push eax
push dword ptr [ebp-8]
call ASTNEWARG
add esp, 16
test eax, eax
jne .L_014A
jmp .L_0140
.L_014A:
.L_0149:
mov eax, dword ptr [ebp-8]
mov dword ptr [ebp-4], eax
.L_0140:
mov eax, dword ptr [ebp-4]
mov esp, ebp
pop ebp
.cfi_restore 5
.cfi_def_cfa 4, 4
ret
.size RTLSTRCONCAT, .-RTLSTRCONCAT
.cfi_endproc
.balign 16

.globl RTLWSTRCONCATWA
RTLWSTRCONCATWA:
.type RTLWSTRCONCATWA, @function
.cfi_startproc
push ebp
.cfi_def_cfa_offset 8
.cfi_offset 5, -8
mov ebp, esp
.cfi_def_cfa_register 5
sub esp, 24
mov dword ptr [ebp-4], 0
.L_014B:
mov dword ptr [ebp-4], 0
sub esp, 8
push 0
sub esp, 12
push 79
push offset Lt_0069
call RTLPROCLOOKUP
add esp, 20
push eax
call ASTNEWCALL
add esp, 16
mov dword ptr [ebp-8], eax
push -1
push -2147483648
push dword ptr [ebp+8]
push dword ptr [ebp-8]
call ASTNEWARG
add esp, 16
test eax, eax
jne .L_014E
jmp .L_014C
.L_014E:
.L_014D:
sub esp, 8
push dword ptr [ebp+16]
push dword ptr [ebp+12]
call RTLCALCSTRLEN
add esp, 16
mov dword ptr [ebp-16], eax
mov dword ptr [ebp-12], edx
push -1
push dword ptr [ebp+16]
push dword ptr [ebp+12]
push dword ptr [ebp-8]
call ASTNEWARG
add esp, 16
test eax, eax
jne .L_0150
jmp .L_014C
.L_0150:
.L_014F:
push -1
push -2147483648
sub esp, 8
push 0
push 8
push dword ptr [ebp-12]
push dword ptr [ebp-16]
call ASTNEWCONSTI
add esp, 24
push eax
push dword ptr [ebp-8]
call ASTNEWARG
add esp, 16
test eax, eax
jne .L_0152
jmp .L_014C
.L_0152:
.L_0151:
mov eax, dword ptr [ebp-8]
mov dword ptr [ebp-4], eax
.L_014C:
mov eax, dword ptr [ebp-4]
mov esp, ebp
pop ebp
.cfi_restore 5
.cfi_def_cfa 4, 4
ret
.size RTLWSTRCONCATWA, .-RTLWSTRCONCATWA
.cfi_endproc
.balign 16

.globl RTLWSTRCONCATAW
RTLWSTRCONCATAW:
.type RTLWSTRCONCATAW, @function
.cfi_startproc
push ebp
.cfi_def_cfa_offset 8
.cfi_offset 5, -8
mov ebp, esp
.cfi_def_cfa_register 5
sub esp, 24
mov dword ptr [ebp-4], 0
.L_0153:
mov dword ptr [ebp-4], 0
sub esp, 8
push 0
sub esp, 12
push 80
push offset Lt_006A
call RTLPROCLOOKUP
add esp, 20
push eax
call ASTNEWCALL
add esp, 16
mov dword ptr [ebp-8], eax
sub esp, 8
push dword ptr [ebp+12]
push dword ptr [ebp+8]
call RTLCALCSTRLEN
add esp, 16
mov dword ptr [ebp-16], eax
mov dword ptr [ebp-12], edx
push -1
push dword ptr [ebp+12]
push dword ptr [ebp+8]
push dword ptr [ebp-8]
call ASTNEWARG
add esp, 16
test eax, eax
jne .L_0156
jmp .L_0154
.L_0156:
.L_0155:
push -1
push -2147483648
sub esp, 8
push 0
push 8
push dword ptr [ebp-12]
push dword ptr [ebp-16]
call ASTNEWCONSTI
add esp, 24
push eax
push dword ptr [ebp-8]
call ASTNEWARG
add esp, 16
test eax, eax
jne .L_0158
jmp .L_0154
.L_0158:
.L_0157:
push -1
push -2147483648
push dword ptr [ebp+16]
push dword ptr [ebp-8]
call ASTNEWARG
add esp, 16
test eax, eax
jne .L_015A
jmp .L_0154
.L_015A:
.L_0159:
mov eax, dword ptr [ebp-8]
mov dword ptr [ebp-4], eax
.L_0154:
mov eax, dword ptr [ebp-4]
mov esp, ebp
pop ebp
.cfi_restore 5
.cfi_def_cfa 4, 4
ret
.size RTLWSTRCONCATAW, .-RTLWSTRCONCATAW
.cfi_endproc
.balign 16

.globl RTLWSTRCONCAT
RTLWSTRCONCAT:
.type RTLWSTRCONCAT, @function
.cfi_startproc
push ebp
.cfi_def_cfa_offset 8
.cfi_offset 5, -8
mov ebp, esp
.cfi_def_cfa_register 5
sub esp, 20
push ebx
mov dword ptr [ebp-4], 0
.L_015B:
mov dword ptr [ebp-4], 0
mov eax, dword ptr [ebp+12]
and eax, 511
mov ebx, dword ptr [ebp+20]
and ebx, 511
cmp eax, ebx
je .L_015E
mov ebx, dword ptr [ebp+12]
and ebx, 480
je .L_015F
mov dword ptr [ebp-12], 24
jmp .L_0167
.L_015F:
mov ebx, dword ptr [ebp+12]
and ebx, 31
mov dword ptr [ebp-12], ebx
.L_0167:
cmp dword ptr [ebp-12], 7
jne .L_0162
sub esp, 4
push dword ptr [ebp+20]
push dword ptr [ebp+16]
push dword ptr [ebp+8]
call RTLWSTRCONCATWA
add esp, 16
mov dword ptr [ebp-4], eax
jmp .L_015C
jmp .L_0161
.L_0162:
sub esp, 4
push dword ptr [ebp+16]
push dword ptr [ebp+12]
push dword ptr [ebp+8]
call RTLWSTRCONCATAW
add esp, 16
mov dword ptr [ebp-4], eax
jmp .L_015C
.L_0161:
.L_015E:
.L_015D:
sub esp, 8
push 0
sub esp, 12
push 78
push offset Lt_0068
call RTLPROCLOOKUP
add esp, 20
push eax
call ASTNEWCALL
add esp, 16
mov dword ptr [ebp-8], eax
push -1
push -2147483648
push dword ptr [ebp+8]
push dword ptr [ebp-8]
call ASTNEWARG
add esp, 16
test eax, eax
jne .L_0164
jmp .L_015C
.L_0164:
.L_0163:
push -1
push -2147483648
push dword ptr [ebp+16]
push dword ptr [ebp-8]
call ASTNEWARG
add esp, 16
test eax, eax
jne .L_0166
jmp .L_015C
.L_0166:
.L_0165:
mov eax, dword ptr [ebp-8]
mov dword ptr [ebp-4], eax
.L_015C:
mov eax, dword ptr [ebp-4]
pop ebx
mov esp, ebp
pop ebp
.cfi_restore 5
.cfi_def_cfa 4, 4
ret
.size RTLWSTRCONCAT, .-RTLWSTRCONCAT
.cfi_endproc
.balign 16

.globl RTLSTRCONCATASSIGN
RTLSTRCONCATASSIGN:
.type RTLSTRCONCATASSIGN, @function
.cfi_startproc
push ebp
.cfi_def_cfa_offset 8
.cfi_offset 5, -8
mov ebp, esp
.cfi_def_cfa_register 5
sub esp, 36
push ebx
mov dword ptr [ebp-4], 0
.L_0168:
mov dword ptr [ebp-4], 0
cmp dword ptr [ebp+16], 0
je .L_016B
sub esp, 8
push 0
sub esp, 12
push 5
push offset Lt_0067
call RTLPROCLOOKUP
add esp, 20
push eax
call ASTNEWCALL
add esp, 16
mov dword ptr [ebp-8], eax
jmp .L_016A
.L_016B:
sub esp, 8
push 0
sub esp, 12
push 7
push offset Lt_006D
call RTLPROCLOOKUP
add esp, 20
push eax
call ASTNEWCALL
add esp, 16
mov dword ptr [ebp-8], eax
.L_016A:
mov eax, dword ptr [ebp+8]
mov ebx, dword ptr [eax+4]
and ebx, 511
mov dword ptr [ebp-12], ebx
sub esp, 8
push dword ptr [ebp-12]
push dword ptr [ebp+8]
call RTLCALCSTRLEN
add esp, 16
mov dword ptr [ebp-24], eax
mov dword ptr [ebp-20], edx
push -1
push dword ptr [ebp-12]
push dword ptr [ebp+8]
push dword ptr [ebp-8]
call ASTNEWARG
add esp, 16
test eax, eax
jne .L_016D
jmp .L_0169
.L_016D:
.L_016C:
push -1
push -2147483648
sub esp, 8
push 0
push 8
push dword ptr [ebp-20]
push dword ptr [ebp-24]
call ASTNEWCONSTI
add esp, 24
push eax
push dword ptr [ebp-8]
call ASTNEWARG
add esp, 16
test eax, eax
jne .L_016F
jmp .L_0169
.L_016F:
.L_016E:
mov eax, dword ptr [ebp+12]
mov edx, dword ptr [eax+4]
and edx, 511
mov dword ptr [ebp-16], edx
sub esp, 8
push dword ptr [ebp-16]
push dword ptr [ebp+12]
call RTLCALCSTRLEN
add esp, 16
mov dword ptr [ebp-24], eax
mov dword ptr [ebp-20], edx
push -1
push dword ptr [ebp-16]
push dword ptr [ebp+12]
push dword ptr [ebp-8]
call ASTNEWARG
add esp, 16
test eax, eax
jne .L_0171
jmp .L_0169
.L_0171:
.L_0170:
push -1
push -2147483648
sub esp, 8
push 0
push 8
push dword ptr [ebp-20]
push dword ptr [ebp-24]
call ASTNEWCONSTI
add esp, 24
push eax
push dword ptr [ebp-8]
call ASTNEWARG
add esp, 16
test eax, eax
jne .L_0173
jmp .L_0169
.L_0173:
.L_0172:
push -1
push -2147483648
sub esp, 8
push 0
push 8
mov eax, dword ptr [ebp-12]
cmp eax, 18
sete al
shr eax, 1
sbb eax, eax
mov ebx, eax
mov edx, ebx
sar edx, 31
push edx
push ebx
call ASTNEWCONSTI
add esp, 24
push eax
push dword ptr [ebp-8]
call ASTNEWARG
add esp, 16
test eax, eax
jne .L_0175
jmp .L_0169
.L_0175:
.L_0174:
mov eax, dword ptr [ebp-8]
mov dword ptr [ebp-4], eax
.L_0169:
mov eax, dword ptr [ebp-4]
pop ebx
mov esp, ebp
pop ebp
.cfi_restore 5
.cfi_def_cfa 4, 4
ret
.size RTLSTRCONCATASSIGN, .-RTLSTRCONCATASSIGN
.cfi_endproc
.balign 16

.globl RTLWSTRCONCATASSIGN
RTLWSTRCONCATASSIGN:
.type RTLWSTRCONCATASSIGN, @function
.cfi_startproc
push ebp
.cfi_def_cfa_offset 8
.cfi_offset 5, -8
mov ebp, esp
.cfi_def_cfa_register 5
sub esp, 8
mov dword ptr [ebp-4], 0
.L_0177:
mov dword ptr [ebp-4], 0
sub esp, 8
push 0
sub esp, 12
push 82
push offset Lt_006E
call RTLPROCLOOKUP
add esp, 20
push eax
call ASTNEWCALL
add esp, 16
mov dword ptr [Lt_017F], eax
sub esp, 8
push 7
push dword ptr [ebp+8]
call RTLCALCSTRLEN
add esp, 16
mov dword ptr [Lt_0180], eax
mov dword ptr [Lt_0180+4], edx
push -1
push -2147483648
push dword ptr [ebp+8]
push dword ptr [Lt_017F]
call ASTNEWARG
add esp, 16
test eax, eax
jne .L_017A
jmp .L_0178
.L_017A:
.L_0179:
push -1
push -2147483648
sub esp, 8
push 0
push 8
push dword ptr [Lt_0180+4]
push dword ptr [Lt_0180]
call ASTNEWCONSTI
add esp, 24
push eax
push dword ptr [Lt_017F]
call ASTNEWARG
add esp, 16
test eax, eax
jne .L_017C
jmp .L_0178
.L_017C:
.L_017B:
push -1
push -2147483648
push dword ptr [ebp+12]
push dword ptr [Lt_017F]
call ASTNEWARG
add esp, 16
test eax, eax
jne .L_017E
jmp .L_0178
.L_017E:
.L_017D:
mov eax, dword ptr [Lt_017F]
mov dword ptr [ebp-4], eax
.L_0178:
mov eax, dword ptr [ebp-4]
mov esp, ebp
pop ebp
.cfi_restore 5
.cfi_def_cfa 4, 4
ret
.size RTLWSTRCONCATASSIGN, .-RTLWSTRCONCATASSIGN
.cfi_endproc

.section .bss
.balign 4
	.lcomm	Lt_017F,4
.balign 4
	.lcomm	Lt_0180,8

.section .text
.balign 16

.globl RTLWSTRASSIGNWA
RTLWSTRASSIGNWA:
.type RTLWSTRASSIGNWA, @function
.cfi_startproc
push ebp
.cfi_def_cfa_offset 8
.cfi_offset 5, -8
mov ebp, esp
.cfi_def_cfa_register 5
sub esp, 24
mov dword ptr [ebp-4], 0
.L_0181:
mov dword ptr [ebp-4], 0
sub esp, 8
push 0
sub esp, 12
push 75
push offset Lt_0061
call RTLPROCLOOKUP
add esp, 20
push eax
call ASTNEWCALL
add esp, 16
mov dword ptr [ebp-8], eax
sub esp, 8
push 7
push dword ptr [ebp+8]
call RTLCALCSTRLEN
add esp, 16
mov dword ptr [ebp-16], eax
mov dword ptr [ebp-12], edx
sub esp, 8
push dword ptr [ebp+16]
push dword ptr [ebp+12]
call RTLCALCSTRLEN
add esp, 16
mov dword ptr [ebp-24], eax
mov dword ptr [ebp-20], edx
push -1
push -2147483648
push dword ptr [ebp+8]
push dword ptr [ebp-8]
call ASTNEWARG
add esp, 16
test eax, eax
jne .L_0184
jmp .L_0182
.L_0184:
.L_0183:
push -1
push -2147483648
sub esp, 8
push 0
push 8
push dword ptr [ebp-12]
push dword ptr [ebp-16]
call ASTNEWCONSTI
add esp, 24
push eax
push dword ptr [ebp-8]
call ASTNEWARG
add esp, 16
test eax, eax
jne .L_0186
jmp .L_0182
.L_0186:
.L_0185:
push -1
push -2147483648
push dword ptr [ebp+12]
push dword ptr [ebp-8]
call ASTNEWARG
add esp, 16
test eax, eax
jne .L_0188
jmp .L_0182
.L_0188:
.L_0187:
push -1
push -2147483648
sub esp, 8
push 0
push 8
push dword ptr [ebp-20]
push dword ptr [ebp-24]
call ASTNEWCONSTI
add esp, 24
push eax
push dword ptr [ebp-8]
call ASTNEWARG
add esp, 16
test eax, eax
jne .L_018A
jmp .L_0182
.L_018A:
.L_0189:
mov eax, dword ptr [ebp-8]
mov dword ptr [ebp-4], eax
.L_0182:
mov eax, dword ptr [ebp-4]
mov esp, ebp
pop ebp
.cfi_restore 5
.cfi_def_cfa 4, 4
ret
.size RTLWSTRASSIGNWA, .-RTLWSTRASSIGNWA
.cfi_endproc
.balign 16

.globl RTLWSTRASSIGNAW
RTLWSTRASSIGNAW:
.type RTLWSTRASSIGNAW, @function
.cfi_startproc
push ebp
.cfi_def_cfa_offset 8
.cfi_offset 5, -8
mov ebp, esp
.cfi_def_cfa_register 5
sub esp, 20
push ebx
mov dword ptr [ebp-4], 0
.L_018B:
mov dword ptr [ebp-4], 0
sub esp, 8
push 0
cmp dword ptr [ebp+20], 0
je .L_018D
sub esp, 12
push 77
push offset Lt_005E
call RTLPROCLOOKUP
add esp, 20
mov dword ptr [ebp-20], eax
jmp .L_0197
.L_018D:
sub esp, 12
push 76
push offset Lt_0062
call RTLPROCLOOKUP
add esp, 20
mov dword ptr [ebp-20], eax
.L_0197:
push dword ptr [ebp-20]
call ASTNEWCALL
add esp, 16
mov dword ptr [ebp-8], eax
sub esp, 8
push dword ptr [ebp+12]
push dword ptr [ebp+8]
call RTLCALCSTRLEN
add esp, 16
mov dword ptr [ebp-16], eax
mov dword ptr [ebp-12], edx
push -1
push -2147483648
push dword ptr [ebp+8]
push dword ptr [ebp-8]
call ASTNEWARG
add esp, 16
test eax, eax
jne .L_0190
jmp .L_018C
.L_0190:
.L_018F:
push -1
push -2147483648
sub esp, 8
push 0
push 8
push dword ptr [ebp-12]
push dword ptr [ebp-16]
call ASTNEWCONSTI
add esp, 24
push eax
push dword ptr [ebp-8]
call ASTNEWARG
add esp, 16
test eax, eax
jne .L_0192
jmp .L_018C
.L_0192:
.L_0191:
push -1
push -2147483648
push dword ptr [ebp+16]
push dword ptr [ebp-8]
call ASTNEWARG
add esp, 16
test eax, eax
jne .L_0194
jmp .L_018C
.L_0194:
.L_0193:
push -1
push -2147483648
sub esp, 8
push 0
push 8
mov eax, dword ptr [ebp+12]
cmp eax, 18
sete al
shr eax, 1
sbb eax, eax
mov ebx, eax
mov edx, ebx
sar edx, 31
push edx
push ebx
call ASTNEWCONSTI
add esp, 24
push eax
push dword ptr [ebp-8]
call ASTNEWARG
add esp, 16
test eax, eax
jne .L_0196
jmp .L_018C
.L_0196:
.L_0195:
mov eax, dword ptr [ebp-8]
mov dword ptr [ebp-4], eax
.L_018C:
mov eax, dword ptr [ebp-4]
pop ebx
mov esp, ebp
pop ebp
.cfi_restore 5
.cfi_def_cfa 4, 4
ret
.size RTLWSTRASSIGNAW, .-RTLWSTRASSIGNAW
.cfi_endproc
.balign 16

.globl RTLSTRASSIGN
RTLSTRASSIGN:
.type RTLSTRASSIGN, @function
.cfi_startproc
push ebp
.cfi_def_cfa_offset 8
.cfi_offset 5, -8
mov ebp, esp
.cfi_def_cfa_register 5
sub esp, 36
push ebx
mov dword ptr [ebp-4], 0
.L_0199:
mov dword ptr [ebp-4], 0
mov eax, dword ptr [ebp+8]
mov ebx, dword ptr [eax+4]
and ebx, 511
mov dword ptr [ebp-12], ebx
mov ebx, dword ptr [ebp+12]
mov eax, dword ptr [ebx+4]
and eax, 511
mov dword ptr [ebp-16], eax
cmp dword ptr [ebp-16], 7
jne .L_019C
push dword ptr [ebp+16]
push dword ptr [ebp+12]
push dword ptr [ebp-12]
push dword ptr [ebp+8]
call RTLWSTRASSIGNAW
add esp, 16
mov dword ptr [ebp-4], eax
jmp .L_019A
jmp .L_019B
.L_019C:
cmp dword ptr [ebp-12], 7
jne .L_019D
sub esp, 4
push dword ptr [ebp-16]
push dword ptr [ebp+12]
push dword ptr [ebp+8]
call RTLWSTRASSIGNWA
add esp, 16
mov dword ptr [ebp-4], eax
jmp .L_019A
.L_019D:
.L_019B:
sub esp, 8
push 0
cmp dword ptr [ebp+16], 0
je .L_019E
sub esp, 12
push 0
push offset Lt_005D
call RTLPROCLOOKUP
add esp, 20
mov dword ptr [ebp-28], eax
jmp .L_01AA
.L_019E:
sub esp, 12
push 3
push offset Lt_005F
call RTLPROCLOOKUP
add esp, 20
mov dword ptr [ebp-28], eax
.L_01AA:
push dword ptr [ebp-28]
call ASTNEWCALL
add esp, 16
mov dword ptr [ebp-8], eax
sub esp, 8
push dword ptr [ebp-12]
push dword ptr [ebp+8]
call RTLCALCSTRLEN
add esp, 16
mov dword ptr [ebp-24], eax
mov dword ptr [ebp-20], edx
push -1
mov eax, dword ptr [ebp+8]
mov edx, dword ptr [eax+4]
and edx, 511
push edx
push dword ptr [ebp+8]
push dword ptr [ebp-8]
call ASTNEWARG
add esp, 16
test eax, eax
jne .L_01A1
jmp .L_019A
.L_01A1:
.L_01A0:
push -1
push -2147483648
sub esp, 8
push 0
push 8
push dword ptr [ebp-20]
push dword ptr [ebp-24]
call ASTNEWCONSTI
add esp, 24
push eax
push dword ptr [ebp-8]
call ASTNEWARG
add esp, 16
test eax, eax
jne .L_01A3
jmp .L_019A
.L_01A3:
.L_01A2:
sub esp, 8
push dword ptr [ebp-16]
push dword ptr [ebp+12]
call RTLCALCSTRLEN
add esp, 16
mov dword ptr [ebp-24], eax
mov dword ptr [ebp-20], edx
push -1
push -2147483648
push dword ptr [ebp+12]
push dword ptr [ebp-8]
call ASTNEWARG
add esp, 16
test eax, eax
jne .L_01A5
jmp .L_019A
.L_01A5:
.L_01A4:
push -1
push -2147483648
sub esp, 8
push 0
push 8
push dword ptr [ebp-20]
push dword ptr [ebp-24]
call ASTNEWCONSTI
add esp, 24
push eax
push dword ptr [ebp-8]
call ASTNEWARG
add esp, 16
test eax, eax
jne .L_01A7
jmp .L_019A
.L_01A7:
.L_01A6:
push -1
push -2147483648
sub esp, 8
push 0
push 8
mov eax, dword ptr [ebp-12]
cmp eax, 18
sete al
shr eax, 1
sbb eax, eax
mov ebx, eax
mov edx, ebx
sar edx, 31
push edx
push ebx
call ASTNEWCONSTI
add esp, 24
push eax
push dword ptr [ebp-8]
call ASTNEWARG
add esp, 16
test eax, eax
jne .L_01A9
jmp .L_019A
.L_01A9:
.L_01A8:
sub esp, 4
push 0
push 0
push dword ptr [ebp-8]
call ASTSETTYPE
add esp, 16
mov eax, dword ptr [ebp-8]
mov dword ptr [ebp-4], eax
.L_019A:
mov eax, dword ptr [ebp-4]
pop ebx
mov esp, ebp
pop ebp
.cfi_restore 5
.cfi_def_cfa 4, 4
ret
.size RTLSTRASSIGN, .-RTLSTRASSIGN
.cfi_endproc
.balign 16

.globl RTLWSTRASSIGN
RTLWSTRASSIGN:
.type RTLWSTRASSIGN, @function
.cfi_startproc
push ebp
.cfi_def_cfa_offset 8
.cfi_offset 5, -8
mov ebp, esp
.cfi_def_cfa_register 5
sub esp, 36
push ebx
mov dword ptr [ebp-4], 0
.L_01AC:
mov dword ptr [ebp-4], 0
mov eax, dword ptr [ebp+8]
mov ebx, dword ptr [eax+4]
and ebx, 511
mov dword ptr [ebp-12], ebx
mov ebx, dword ptr [ebp+12]
mov eax, dword ptr [ebx+4]
and eax, 511
mov dword ptr [ebp-16], eax
mov eax, dword ptr [ebp-16]
cmp dword ptr [ebp-12], eax
je .L_01AF
cmp dword ptr [ebp-12], 7
jne .L_01B1
sub esp, 4
push dword ptr [ebp-16]
push dword ptr [ebp+12]
push dword ptr [ebp+8]
call RTLWSTRASSIGNWA
add esp, 16
mov dword ptr [ebp-4], eax
jmp .L_01AD
jmp .L_01B0
.L_01B1:
push dword ptr [ebp+16]
push dword ptr [ebp+12]
push dword ptr [ebp-12]
push dword ptr [ebp+8]
call RTLWSTRASSIGNAW
add esp, 16
mov dword ptr [ebp-4], eax
jmp .L_01AD
.L_01B0:
.L_01AF:
.L_01AE:
sub esp, 8
push 0
sub esp, 12
push 74
push offset Lt_0060
call RTLPROCLOOKUP
add esp, 20
push eax
call ASTNEWCALL
add esp, 16
mov dword ptr [ebp-8], eax
sub esp, 8
push dword ptr [ebp-12]
push dword ptr [ebp+8]
call RTLCALCSTRLEN
add esp, 16
mov dword ptr [ebp-24], eax
mov dword ptr [ebp-20], edx
push -1
push -2147483648
push dword ptr [ebp+8]
push dword ptr [ebp-8]
call ASTNEWARG
add esp, 16
test eax, eax
jne .L_01B3
jmp .L_01AD
.L_01B3:
.L_01B2:
push -1
push -2147483648
sub esp, 8
push 0
push 8
push dword ptr [ebp-20]
push dword ptr [ebp-24]
call ASTNEWCONSTI
add esp, 24
push eax
push dword ptr [ebp-8]
call ASTNEWARG
add esp, 16
test eax, eax
jne .L_01B5
jmp .L_01AD
.L_01B5:
.L_01B4:
push -1
push -2147483648
push dword ptr [ebp+12]
push dword ptr [ebp-8]
call ASTNEWARG
add esp, 16
test eax, eax
jne .L_01B7
jmp .L_01AD
.L_01B7:
.L_01B6:
mov eax, dword ptr [ebp-8]
mov dword ptr [ebp-4], eax
.L_01AD:
mov eax, dword ptr [ebp-4]
pop ebx
mov esp, ebp
pop ebp
.cfi_restore 5
.cfi_def_cfa 4, 4
ret
.size RTLWSTRASSIGN, .-RTLWSTRASSIGN
.cfi_endproc
.balign 16

.globl RTLSTRDELETE
RTLSTRDELETE:
.type RTLSTRDELETE, @function
.cfi_startproc
push ebp
.cfi_def_cfa_offset 8
.cfi_offset 5, -8
mov ebp, esp
.cfi_def_cfa_register 5
sub esp, 20
push ebx
mov dword ptr [ebp-4], 0
.L_01B8:
mov dword ptr [ebp-4], 0
mov eax, dword ptr [ebp+8]
mov ebx, dword ptr [eax+4]
and ebx, 511
mov dword ptr [ebp-16], ebx
cmp dword ptr [ebp-16], 39
jne .L_01BB
sub esp, 8
push 73
push offset Lt_0065
call RTLPROCLOOKUP
add esp, 16
mov dword ptr [ebp-8], eax
jmp .L_01BA
.L_01BB:
mov eax, dword ptr [ebp+8]
cmp dword ptr [eax], 9
jne .L_01BD
sub esp, 8
push 2
push offset Lt_0064
call RTLPROCLOOKUP
add esp, 16
mov dword ptr [ebp-8], eax
jmp .L_01BC
.L_01BD:
sub esp, 8
push 1
push offset Lt_0063
call RTLPROCLOOKUP
add esp, 16
mov dword ptr [ebp-8], eax
.L_01BC:
.L_01BA:
sub esp, 8
push 0
push dword ptr [ebp-8]
call ASTNEWCALL
add esp, 16
mov dword ptr [ebp-12], eax
push -1
push dword ptr [ebp-16]
push dword ptr [ebp+8]
push dword ptr [ebp-12]
call ASTNEWARG
add esp, 16
test eax, eax
jne .L_01BF
jmp .L_01B9
.L_01BF:
.L_01BE:
mov eax, dword ptr [ebp-12]
mov dword ptr [ebp-4], eax
.L_01B9:
mov eax, dword ptr [ebp-4]
pop ebx
mov esp, ebp
pop ebp
.cfi_restore 5
.cfi_def_cfa 4, 4
ret
.size RTLSTRDELETE, .-RTLSTRDELETE
.cfi_endproc
.balign 16

.globl RTLSTRALLOCTMPRESULT
RTLSTRALLOCTMPRESULT:
.type RTLSTRALLOCTMPRESULT, @function
.cfi_startproc
push ebp
.cfi_def_cfa_offset 8
.cfi_offset 5, -8
mov ebp, esp
.cfi_def_cfa_register 5
sub esp, 8
mov dword ptr [ebp-4], 0
.L_01C0:
mov dword ptr [ebp-4], 0
sub esp, 8
push 0
sub esp, 12
push 8
push offset Lt_006F
call RTLPROCLOOKUP
add esp, 20
push eax
call ASTNEWCALL
add esp, 16
mov dword ptr [Lt_01C4], eax
push -1
push 17
push dword ptr [ebp+8]
push dword ptr [Lt_01C4]
call ASTNEWARG
add esp, 16
test eax, eax
jne .L_01C3
jmp .L_01C1
.L_01C3:
.L_01C2:
mov eax, dword ptr [Lt_01C4]
mov dword ptr [ebp-4], eax
.L_01C1:
mov eax, dword ptr [ebp-4]
mov esp, ebp
pop ebp
.cfi_restore 5
.cfi_def_cfa 4, 4
ret
.size RTLSTRALLOCTMPRESULT, .-RTLSTRALLOCTMPRESULT
.cfi_endproc

.section .bss
.balign 4
	.lcomm	Lt_01C4,4

.section .text
.balign 16

.globl RTLSTRALLOCTMPDESC
RTLSTRALLOCTMPDESC:
.type RTLSTRALLOCTMPDESC, @function
.cfi_startproc
push ebp
.cfi_def_cfa_offset 8
.cfi_offset 5, -8
mov ebp, esp
.cfi_def_cfa_register 5
sub esp, 36
push ebx
mov dword ptr [ebp-4], 0
.L_01C5:
mov dword ptr [ebp-4], 0
mov eax, dword ptr [ebp+8]
mov ebx, dword ptr [eax+4]
and ebx, 511
mov dword ptr [ebp-12], ebx
mov ebx, dword ptr [ebp-12]
mov dword ptr [ebp-28], ebx
jmp .L_01C8
.L_01CA:
sub esp, 12
push dword ptr [ebp+8]
call ASTGETSTRLITSYMBOL
add esp, 16
mov dword ptr [ebp-24], eax
cmp dword ptr [ebp-24], 0
jne .L_01CC
sub esp, 8
push 0
sub esp, 12
push 10
push offset Lt_0071
call RTLPROCLOOKUP
add esp, 20
push eax
call ASTNEWCALL
add esp, 16
mov dword ptr [ebp-8], eax
jmp .L_01CB
.L_01CC:
sub esp, 8
push 0
sub esp, 12
push 11
push offset Lt_0072
call RTLPROCLOOKUP
add esp, 20
push eax
call ASTNEWCALL
add esp, 16
mov dword ptr [ebp-8], eax
.L_01CB:
push -1
push -2147483648
push dword ptr [ebp+8]
push dword ptr [ebp-8]
call ASTNEWARG
add esp, 16
test eax, eax
jne .L_01CE
jmp .L_01C6
.L_01CE:
.L_01CD:
cmp dword ptr [ebp-24], 0
je .L_01D0
mov eax, dword ptr [ebp-24]
mov ecx, dword ptr [eax+40]
mov ebx, dword ptr [eax+44]
add ecx, 4294967295
adc ebx, 4294967295
mov dword ptr [ebp-20], ecx
mov dword ptr [ebp-16], ebx
push -1
push -2147483648
sub esp, 8
push 0
push 8
push dword ptr [ebp-16]
push dword ptr [ebp-20]
call ASTNEWCONSTI
add esp, 24
push eax
push dword ptr [ebp-8]
call ASTNEWARG
add esp, 16
test eax, eax
jne .L_01D2
jmp .L_01C6
.L_01D2:
.L_01D1:
.L_01D0:
.L_01CF:
jmp .L_01C7
.L_01D3:
sub esp, 8
push 0
sub esp, 12
push 9
push offset Lt_0070
call RTLPROCLOOKUP
add esp, 20
push eax
call ASTNEWCALL
add esp, 16
mov dword ptr [ebp-8], eax
sub esp, 8
push dword ptr [ebp-12]
push dword ptr [ebp+8]
call RTLCALCSTRLEN
add esp, 16
mov dword ptr [ebp-20], eax
mov dword ptr [ebp-16], edx
push -1
push -2147483648
push dword ptr [ebp+8]
push dword ptr [ebp-8]
call ASTNEWARG
add esp, 16
test eax, eax
jne .L_01D5
jmp .L_01C6
.L_01D5:
.L_01D4:
push -1
push -2147483648
sub esp, 8
push 0
push 8
push dword ptr [ebp-16]
push dword ptr [ebp-20]
call ASTNEWCONSTI
add esp, 24
push eax
push dword ptr [ebp-8]
call ASTNEWARG
add esp, 16
test eax, eax
jne .L_01D7
jmp .L_01C6
.L_01D7:
.L_01D6:
jmp .L_01C7
.L_01C8:
mov eax, dword ptr [ebp-28]
add eax, 4294967292
cmp eax, 14
ja .L_01C7
mov eax, dword ptr [ebp-28]
jmp dword ptr [.L_01D8+eax*4-16]
.L_01D8:
.int .L_01CA
.int .L_01C7
.int .L_01C7
.int .L_01C7
.int .L_01C7
.int .L_01C7
.int .L_01C7
.int .L_01C7
.int .L_01C7
.int .L_01C7
.int .L_01C7
.int .L_01C7
.int .L_01C7
.int .L_01C7
.int .L_01D3
.L_01C7:
mov eax, dword ptr [ebp-8]
mov dword ptr [ebp-4], eax
.L_01C6:
mov eax, dword ptr [ebp-4]
pop ebx
mov esp, ebp
pop ebp
.cfi_restore 5
.cfi_def_cfa 4, 4
ret
.size RTLSTRALLOCTMPDESC, .-RTLSTRALLOCTMPDESC
.cfi_endproc
.balign 16

.globl RTLWSTRALLOC
RTLWSTRALLOC:
.type RTLWSTRALLOC, @function
.cfi_startproc
push ebp
.cfi_def_cfa_offset 8
.cfi_offset 5, -8
mov ebp, esp
.cfi_def_cfa_register 5
sub esp, 8
mov dword ptr [ebp-4], 0
.L_01D9:
mov dword ptr [ebp-4], 0
sub esp, 8
push 0
sub esp, 12
push 72
push offset Lt_0073
call RTLPROCLOOKUP
add esp, 20
push eax
call ASTNEWCALL
add esp, 16
mov dword ptr [ebp-8], eax
push -1
push -2147483648
push dword ptr [ebp+8]
push dword ptr [ebp-8]
call ASTNEWARG
add esp, 16
test eax, eax
jne .L_01DC
jmp .L_01DA
.L_01DC:
.L_01DB:
mov eax, dword ptr [ebp-8]
mov dword ptr [ebp-4], eax
.L_01DA:
mov eax, dword ptr [ebp-4]
mov esp, ebp
pop ebp
.cfi_restore 5
.cfi_def_cfa 4, 4
ret
.size RTLWSTRALLOC, .-RTLWSTRALLOC
.cfi_endproc
.balign 16

.globl RTLWSTRTOA
RTLWSTRTOA:
.type RTLWSTRTOA, @function
.cfi_startproc
push ebp
.cfi_def_cfa_offset 8
.cfi_offset 5, -8
mov ebp, esp
.cfi_def_cfa_register 5
sub esp, 8
mov dword ptr [ebp-4], 0
.L_01DD:
mov dword ptr [ebp-4], 0
sub esp, 8
push 0
sub esp, 12
push 19
push offset Lt_0088
call RTLPROCLOOKUP
add esp, 20
push eax
call ASTNEWCALL
add esp, 16
mov dword ptr [ebp-8], eax
push -1
push -2147483648
push dword ptr [ebp+8]
push dword ptr [ebp-8]
call ASTNEWARG
add esp, 16
test eax, eax
jne .L_01E0
jmp .L_01DE
.L_01E0:
.L_01DF:
mov eax, dword ptr [ebp-8]
mov dword ptr [ebp-4], eax
.L_01DE:
mov eax, dword ptr [ebp-4]
mov esp, ebp
pop ebp
.cfi_restore 5
.cfi_def_cfa 4, 4
ret
.size RTLWSTRTOA, .-RTLWSTRTOA
.cfi_endproc
.balign 16

.globl RTLATOWSTR
RTLATOWSTR:
.type RTLATOWSTR, @function
.cfi_startproc
push ebp
.cfi_def_cfa_offset 8
.cfi_offset 5, -8
mov ebp, esp
.cfi_def_cfa_register 5
sub esp, 8
mov dword ptr [ebp-4], 0
.L_01E1:
mov dword ptr [ebp-4], 0
sub esp, 8
push 0
sub esp, 12
push 90
push offset Lt_0089
call RTLPROCLOOKUP
add esp, 20
push eax
call ASTNEWCALL
add esp, 16
mov dword ptr [ebp-8], eax
push -1
push -2147483648
push dword ptr [ebp+8]
push dword ptr [ebp-8]
call ASTNEWARG
add esp, 16
test eax, eax
jne .L_01E4
jmp .L_01E2
.L_01E4:
.L_01E3:
mov eax, dword ptr [ebp-8]
mov dword ptr [ebp-4], eax
.L_01E2:
mov eax, dword ptr [ebp-4]
mov esp, ebp
pop ebp
.cfi_restore 5
.cfi_def_cfa 4, 4
ret
.size RTLATOWSTR, .-RTLATOWSTR
.cfi_endproc
.balign 16

.globl RTLTOSTR
RTLTOSTR:
.type RTLTOSTR, @function
.cfi_startproc
push ebp
.cfi_def_cfa_offset 8
.cfi_offset 5, -8
mov ebp, esp
.cfi_def_cfa_register 5
sub esp, 52
push ebx
mov dword ptr [ebp-4], 0
.L_01E5:
mov dword ptr [ebp-4], 0
mov eax, dword ptr [ebp+8]
mov ebx, dword ptr [eax+4]
and ebx, 511
mov dword ptr [ebp-20], ebx
mov ebx, dword ptr [ebp+8]
cmp dword ptr [ebx], 16
jne .L_01E8
mov dword ptr [ebp-32], 0
mov dword ptr [ebp-28], 0
mov dword ptr [ebp-24], 0
mov ebx, dword ptr [ebp+8]
mov eax, dword ptr [ebx+4]
and eax, 511
cmp eax, 1
jne .L_01EA
jmp .L_01E9
.L_01EA:
cmp dword ptr [ebp+12], 0
je .L_01EC
mov eax, dword ptr [ebp+8]
mov ebx, dword ptr [eax+4]
and ebx, 511
and ebx, 480
je .L_01ED
mov dword ptr [ebp-36], 24
jmp .L_022A
.L_01ED:
mov ebx, dword ptr [ebp+8]
mov eax, dword ptr [ebx+4]
and eax, 511
and eax, 31
mov dword ptr [ebp-36], eax
.L_022A:
mov eax, dword ptr [ebp-36]
imul eax, 28
cmp dword ptr [SYMB_DTYPETB+eax+8], 0
je .L_01F0
sub esp, 12
push dword ptr [ebp+8]
call ASTCONSTGETASDOUBLE
add esp, 16
fld qword ptr [Lt_022B]
fcomip st, st(1)
fstp st(0)
ja .L_01F2
sub esp, 12
push 0
push 2
push offset Lt_01F3
push -1
lea eax, [ebp-32]
push eax
call fb_StrAssign
add esp, 32
.L_01F2:
.L_01F1:
jmp .L_01EF
.L_01F0:
sub esp, 12
push 0
push 2
push offset Lt_01F3
push -1
lea eax, [ebp-32]
push eax
call fb_StrAssign
add esp, 32
.L_01EF:
.L_01EC:
.L_01EB:
.L_01E9:
sub esp, 12
push 0
push -1
sub esp, 8
push dword ptr [ebp+8]
call ASTCONSTFLUSHTOSTR
add esp, 12
push eax
push -1
lea eax, [ebp-32]
push eax
call fb_StrConcatAssign
add esp, 32
sub esp, 12
push dword ptr [ebp-32]
call ASTNEWCONSTSTR
add esp, 16
mov dword ptr [ebp-4], eax
sub esp, 12
lea eax, [ebp-32]
push eax
call fb_StrDelete
add esp, 16
jmp .L_01E6
sub esp, 12
lea eax, [ebp-32]
push eax
call fb_StrDelete
add esp, 16
.L_01E8:
.L_01E7:
cmp dword ptr [ebp-20], 7
jne .L_01F5
sub esp, 12
push dword ptr [ebp+8]
call ASTGETSTRLITSYMBOL
add esp, 16
mov dword ptr [ebp-16], eax
cmp dword ptr [ebp-16], 0
je .L_01F7
cmp dword ptr [ENV+288], 0
je .L_01F9
sub esp, 8
sub esp, 8
mov ebx, dword ptr [SYMB_DTYPETB+200]
mov eax, ebx
sar eax, 31
push eax
push ebx
mov ebx, dword ptr [ebp-16]
push dword ptr [ebx+44]
push dword ptr [ebx+40]
call __divdi3
add esp, 24
add eax, 4294967295
adc edx, 4294967295
mov ebx, eax
push ebx
mov dword ptr [ebp-32], 0
mov dword ptr [ebp-28], 0
mov dword ptr [ebp-24], 0
push 0
push -1
sub esp, 8
mov ebx, dword ptr [ebp-16]
push dword ptr [ebx+56]
call fb_WstrToStr
add esp, 12
push eax
push -1
lea eax, [ebp-32]
push eax
call fb_StrAssign
add esp, 20
push dword ptr [ebp-32]
call SYMBALLOCSTRCONST
add esp, 16
mov dword ptr [ebp-16], eax
sub esp, 12
lea eax, [ebp-32]
push eax
call fb_StrDelete
add esp, 16
sub esp, 12
push 0
push -2147483648
push 0
push 0
push dword ptr [ebp-16]
call ASTNEWVAR
add esp, 32
mov dword ptr [ebp-4], eax
jmp .L_01E6
.L_01F9:
.L_01F8:
.L_01F7:
.L_01F6:
.L_01F5:
.L_01F4:
sub esp, 12
lea eax, [ebp+8]
push eax
call ASTTRYOVLSTRINGCONV
add esp, 16
mov eax, dword ptr [ebp+8]
mov ebx, dword ptr [eax+4]
and ebx, 511
mov dword ptr [ebp-20], ebx
mov ebx, dword ptr [ebp+8]
mov eax, dword ptr [ebx+4]
and eax, 511
and eax, 480
je .L_01FB
mov dword ptr [ebp-24], 24
jmp .L_022C
.L_01FB:
mov eax, dword ptr [ebp+8]
mov ebx, dword ptr [eax+4]
and ebx, 511
and ebx, 31
mov dword ptr [ebp-24], ebx
.L_022C:
mov ebx, dword ptr [ebp-24]
imul ebx, 28
mov eax, dword ptr [SYMB_DTYPETB+ebx]
mov dword ptr [ebp-28], eax
jmp .L_01FE
.L_0200:
mov eax, dword ptr [ebp-20]
and eax, 480
test eax, eax
je .L_0202
sub esp, 12
push 0
push 0
push dword ptr [ebp+8]
push 0
push 9
call ASTNEWCONV
add esp, 32
mov dword ptr [ebp+8], eax
mov eax, dword ptr [ebp+8]
mov ebx, dword ptr [eax+4]
and ebx, 511
mov dword ptr [ebp-20], ebx
.L_0202:
.L_0201:
cmp dword ptr [ebp-20], 4
jne .L_0204
.L_0205:
mov ebx, dword ptr [ebp+8]
mov dword ptr [ebp-4], ebx
jmp .L_01E6
jmp .L_0203
.L_0204:
cmp dword ptr [ebp-20], 7
jne .L_0206
.L_0207:
sub esp, 12
push dword ptr [ebp+8]
call RTLWSTRTOA
add esp, 16
mov dword ptr [ebp-4], eax
jmp .L_01E6
jmp .L_0203
.L_0206:
cmp dword ptr [ebp-20], 1
jne .L_0208
.L_0209:
sub esp, 8
push 12
push offset Lt_0074
call RTLPROCLOOKUP
add esp, 16
mov dword ptr [ebp-12], eax
jmp .L_0203
.L_0208:
mov eax, dword ptr [ebp-20]
and eax, 480
je .L_020B
mov dword ptr [ebp-32], 24
jmp .L_022D
.L_020B:
mov eax, dword ptr [ebp-20]
and eax, 31
mov dword ptr [ebp-32], eax
.L_022D:
mov eax, dword ptr [ebp-32]
imul eax, 28
mov ebx, dword ptr [SYMB_DTYPETB+eax+20]
mov dword ptr [ebp-36], ebx
jmp .L_020E
.L_0210:
cmp dword ptr [ebp+12], 0
jne .L_0211
sub esp, 8
push 15
push offset Lt_007C
call RTLPROCLOOKUP
add esp, 16
mov dword ptr [ebp-40], eax
jmp .L_022E
.L_0211:
sub esp, 8
push 22
push offset Lt_007D
call RTLPROCLOOKUP
add esp, 16
mov dword ptr [ebp-40], eax
.L_022E:
mov eax, dword ptr [ebp-40]
mov dword ptr [ebp-12], eax
jmp .L_020D
.L_0213:
cmp dword ptr [ebp+12], 0
jne .L_0214
sub esp, 8
push 16
push offset Lt_007F
call RTLPROCLOOKUP
add esp, 16
mov dword ptr [ebp-40], eax
jmp .L_022F
.L_0214:
sub esp, 8
push 23
push offset Lt_0080
call RTLPROCLOOKUP
add esp, 16
mov dword ptr [ebp-40], eax
.L_022F:
mov eax, dword ptr [ebp-40]
mov dword ptr [ebp-12], eax
jmp .L_020D
.L_0216:
cmp dword ptr [ebp+12], 0
jne .L_0217
sub esp, 8
push 14
push offset Lt_0079
call RTLPROCLOOKUP
add esp, 16
mov dword ptr [ebp-40], eax
jmp .L_0230
.L_0217:
sub esp, 8
push 21
push offset Lt_007A
call RTLPROCLOOKUP
add esp, 16
mov dword ptr [ebp-40], eax
.L_0230:
mov eax, dword ptr [ebp-40]
mov dword ptr [ebp-12], eax
jmp .L_020D
.L_0219:
cmp dword ptr [ebp+12], 0
jne .L_021A
sub esp, 8
push 13
push offset Lt_0075
call RTLPROCLOOKUP
add esp, 16
mov dword ptr [ebp-40], eax
jmp .L_0231
.L_021A:
sub esp, 8
push 20
push offset Lt_0076
call RTLPROCLOOKUP
add esp, 16
mov dword ptr [ebp-40], eax
.L_0231:
mov eax, dword ptr [ebp-40]
mov dword ptr [ebp-12], eax
jmp .L_020D
.L_020E:
mov eax, dword ptr [ebp-36]
add eax, 4294967294
cmp eax, 6
ja .L_0219
mov eax, dword ptr [ebp-36]
jmp dword ptr [.L_021C+eax*4-8]
.L_021C:
.int .L_0216
.int .L_0219
.int .L_0216
.int .L_0219
.int .L_0216
.int .L_0210
.int .L_0213
.L_020D:
.L_020A:
.L_0203:
jmp .L_01FD
.L_021D:
mov eax, dword ptr [ebp+8]
mov ebx, dword ptr [eax+4]
and ebx, 511
cmp ebx, 15
jne .L_021F
cmp dword ptr [ebp+12], 0
jne .L_0220
sub esp, 8
push 17
push offset Lt_0082
call RTLPROCLOOKUP
add esp, 16
mov dword ptr [ebp-32], eax
jmp .L_0232
.L_0220:
sub esp, 8
push 24
push offset Lt_0083
call RTLPROCLOOKUP
add esp, 16
mov dword ptr [ebp-32], eax
.L_0232:
mov eax, dword ptr [ebp-32]
mov dword ptr [ebp-12], eax
jmp .L_021E
.L_021F:
cmp dword ptr [ebp+12], 0
jne .L_0222
sub esp, 8
push 18
push offset Lt_0085
call RTLPROCLOOKUP
add esp, 16
mov dword ptr [ebp-32], eax
jmp .L_0233
.L_0222:
sub esp, 8
push 25
push offset Lt_0086
call RTLPROCLOOKUP
add esp, 16
mov dword ptr [ebp-32], eax
.L_0233:
mov eax, dword ptr [ebp-32]
mov dword ptr [ebp-12], eax
.L_021E:
jmp .L_01FD
.L_0224:
mov eax, dword ptr [ebp+8]
mov dword ptr [ebp-4], eax
jmp .L_01E6
jmp .L_01FD
.L_0225:
sub esp, 12
push 0
push 0
push dword ptr [ebp+8]
push 0
push 17
call ASTNEWCONV
add esp, 32
mov dword ptr [ebp-4], eax
jmp .L_01E6
jmp .L_01FD
.L_0226:
mov dword ptr [ebp-4], 0
jmp .L_01E6
jmp .L_01FD
.L_01FE:
cmp dword ptr [ebp-28], 3
ja .L_0226
mov eax, dword ptr [ebp-28]
jmp dword ptr [.L_0227+eax*4]
.L_0227:
.int .L_0200
.int .L_021D
.int .L_0224
.int .L_0225
.L_01FD:
sub esp, 8
push 0
push dword ptr [ebp-12]
call ASTNEWCALL
add esp, 16
mov dword ptr [ebp-8], eax
push -1
push -2147483648
push dword ptr [ebp+8]
push dword ptr [ebp-8]
call ASTNEWARG
add esp, 16
test eax, eax
jne .L_0229
jmp .L_01E6
.L_0229:
.L_0228:
mov eax, dword ptr [ebp-8]
mov dword ptr [ebp-4], eax
.L_01E6:
mov eax, dword ptr [ebp-4]
pop ebx
mov esp, ebp
pop ebp
.cfi_restore 5
.cfi_def_cfa 4, 4
ret
.size RTLTOSTR, .-RTLTOSTR
.cfi_endproc
.balign 16

.globl RTLTOWSTR
RTLTOWSTR:
.type RTLTOWSTR, @function
.cfi_startproc
push ebp
.cfi_def_cfa_offset 8
.cfi_offset 5, -8
mov ebp, esp
.cfi_def_cfa_register 5
sub esp, 36
push ebx
mov dword ptr [ebp-4], 0
.L_0234:
mov dword ptr [ebp-20], 0
mov dword ptr [ebp-4], 0
mov eax, dword ptr [ebp+8]
mov ebx, dword ptr [eax+4]
and ebx, 511
mov dword ptr [ebp-20], ebx
mov ebx, dword ptr [ebp+8]
cmp dword ptr [ebx], 16
jne .L_0237
sub esp, 12
push dword ptr [ebp+8]
call ASTCONSTFLUSHTOWSTR
add esp, 4
push eax
call ASTNEWCONSTWSTR
add esp, 16
mov dword ptr [ebp-4], eax
jmp .L_0235
.L_0237:
.L_0236:
cmp dword ptr [ebp-20], 4
jne .L_0239
sub esp, 12
push dword ptr [ebp+8]
call ASTGETSTRLITSYMBOL
add esp, 16
mov dword ptr [ebp-16], eax
cmp dword ptr [ebp-16], 0
je .L_023B
cmp dword ptr [ENV+288], 0
je .L_023D
sub esp, 8
mov eax, dword ptr [ebp-16]
mov ecx, dword ptr [eax+40]
mov ebx, dword ptr [eax+44]
add ecx, 4294967295
adc ebx, 4294967295
mov eax, ecx
push eax
mov eax, dword ptr [ebp-16]
push dword ptr [eax+56]
call fb_StrToWstr
add esp, 4
mov dword ptr [ebp-24], eax
push dword ptr [ebp-24]
call SYMBALLOCWSTRCONST
add esp, 16
mov dword ptr [ebp-16], eax
sub esp, 12
push dword ptr [ebp-24]
call fb_WstrDelete
add esp, 16
sub esp, 12
push 0
push -2147483648
push 0
push 0
push dword ptr [ebp-16]
call ASTNEWVAR
add esp, 32
mov dword ptr [ebp-4], eax
jmp .L_0235
.L_023D:
.L_023C:
.L_023B:
.L_023A:
.L_0239:
.L_0238:
sub esp, 12
lea eax, [ebp+8]
push eax
call ASTTRYOVLSTRINGCONV
add esp, 16
mov eax, dword ptr [ebp+8]
mov ecx, dword ptr [eax+4]
and ecx, 511
mov dword ptr [ebp-20], ecx
mov ecx, dword ptr [ebp+8]
mov eax, dword ptr [ecx+4]
and eax, 511
and eax, 480
je .L_023F
mov dword ptr [ebp-24], 24
jmp .L_0262
.L_023F:
mov eax, dword ptr [ebp+8]
mov ecx, dword ptr [eax+4]
and ecx, 511
and ecx, 31
mov dword ptr [ebp-24], ecx
.L_0262:
mov ecx, dword ptr [ebp-24]
imul ecx, 28
mov eax, dword ptr [SYMB_DTYPETB+ecx]
mov dword ptr [ebp-28], eax
jmp .L_0242
.L_0244:
mov eax, dword ptr [ebp-20]
and eax, 480
test eax, eax
je .L_0246
sub esp, 12
push 0
push 0
push dword ptr [ebp+8]
push 0
push 9
call ASTNEWCONV
add esp, 32
mov dword ptr [ebp+8], eax
mov eax, dword ptr [ebp+8]
mov ecx, dword ptr [eax+4]
and ecx, 511
mov dword ptr [ebp-20], ecx
.L_0246:
.L_0245:
cmp dword ptr [ebp-20], 7
jne .L_0248
.L_0249:
mov ecx, dword ptr [ebp+8]
mov dword ptr [ebp-4], ecx
jmp .L_0235
jmp .L_0247
.L_0248:
cmp dword ptr [ebp-20], 4
jne .L_024A
.L_024B:
sub esp, 12
push dword ptr [ebp+8]
call RTLATOWSTR
add esp, 16
mov dword ptr [ebp-4], eax
jmp .L_0235
jmp .L_0247
.L_024A:
cmp dword ptr [ebp-20], 1
jne .L_024C
.L_024D:
sub esp, 8
push 83
push offset Lt_0077
call RTLPROCLOOKUP
add esp, 16
mov dword ptr [ebp-12], eax
jmp .L_0247
.L_024C:
mov eax, dword ptr [ebp-20]
and eax, 480
je .L_024F
mov dword ptr [ebp-32], 24
jmp .L_0263
.L_024F:
mov eax, dword ptr [ebp-20]
and eax, 31
mov dword ptr [ebp-32], eax
.L_0263:
mov eax, dword ptr [ebp-32]
imul eax, 28
mov ecx, dword ptr [SYMB_DTYPETB+eax+20]
mov dword ptr [ebp-36], ecx
jmp .L_0252
.L_0254:
sub esp, 8
push 86
push offset Lt_007E
call RTLPROCLOOKUP
add esp, 16
mov dword ptr [ebp-12], eax
jmp .L_0251
.L_0255:
sub esp, 8
push 87
push offset Lt_0081
call RTLPROCLOOKUP
add esp, 16
mov dword ptr [ebp-12], eax
jmp .L_0251
.L_0256:
sub esp, 8
push 85
push offset Lt_007B
call RTLPROCLOOKUP
add esp, 16
mov dword ptr [ebp-12], eax
jmp .L_0251
.L_0257:
sub esp, 8
push 84
push offset Lt_0078
call RTLPROCLOOKUP
add esp, 16
mov dword ptr [ebp-12], eax
jmp .L_0251
.L_0252:
mov eax, dword ptr [ebp-36]
add eax, 4294967294
cmp eax, 6
ja .L_0257
mov eax, dword ptr [ebp-36]
jmp dword ptr [.L_0258+eax*4-8]
.L_0258:
.int .L_0256
.int .L_0257
.int .L_0256
.int .L_0257
.int .L_0256
.int .L_0254
.int .L_0255
.L_0251:
.L_024E:
.L_0247:
jmp .L_0241
.L_0259:
mov eax, dword ptr [ebp+8]
mov ecx, dword ptr [eax+4]
and ecx, 511
cmp ecx, 15
jne .L_025B
sub esp, 8
push 88
push offset Lt_0084
call RTLPROCLOOKUP
add esp, 16
mov dword ptr [ebp-12], eax
jmp .L_025A
.L_025B:
sub esp, 8
push 89
push offset Lt_0087
call RTLPROCLOOKUP
add esp, 16
mov dword ptr [ebp-12], eax
.L_025A:
jmp .L_0241
.L_025C:
sub esp, 12
push dword ptr [ebp+8]
call RTLATOWSTR
add esp, 16
mov dword ptr [ebp-4], eax
jmp .L_0235
jmp .L_0241
.L_025D:
sub esp, 12
push 0
push 0
push dword ptr [ebp+8]
push 0
push 39
call ASTNEWCONV
add esp, 32
mov dword ptr [ebp-4], eax
jmp .L_0235
jmp .L_0241
.L_025E:
mov dword ptr [ebp-4], 0
jmp .L_0235
jmp .L_0241
.L_0242:
cmp dword ptr [ebp-28], 3
ja .L_025E
mov eax, dword ptr [ebp-28]
jmp dword ptr [.L_025F+eax*4]
.L_025F:
.int .L_0244
.int .L_0259
.int .L_025C
.int .L_025D
.L_0241:
sub esp, 8
push 0
push dword ptr [ebp-12]
call ASTNEWCALL
add esp, 16
mov dword ptr [ebp-8], eax
push -1
push -2147483648
push dword ptr [ebp+8]
push dword ptr [ebp-8]
call ASTNEWARG
add esp, 16
test eax, eax
jne .L_0261
jmp .L_0235
.L_0261:
.L_0260:
mov eax, dword ptr [ebp-8]
mov dword ptr [ebp-4], eax
.L_0235:
mov eax, dword ptr [ebp-4]
pop ebx
mov esp, ebp
pop ebp
.cfi_restore 5
.cfi_def_cfa 4, 4
ret
.size RTLTOWSTR, .-RTLTOWSTR
.cfi_endproc
.balign 16

.globl RTLSTRTOVAL
RTLSTRTOVAL:
.type RTLSTRTOVAL, @function
.cfi_startproc
push ebp
.cfi_def_cfa_offset 8
.cfi_offset 5, -8
mov ebp, esp
.cfi_def_cfa_register 5
sub esp, 52
push ebx
mov dword ptr [ebp-4], 0
.L_0264:
mov dword ptr [ebp-4], 0
mov eax, dword ptr [ebp+12]
and eax, 480
test eax, eax
je .L_0267
sub esp, 12
push 0
push 0
push dword ptr [ebp+8]
push 0
push 9
call ASTNEWCONV
add esp, 32
mov dword ptr [ebp+8], eax
.L_0267:
.L_0266:
mov eax, dword ptr [ebp+12]
and eax, 480
je .L_0268
mov dword ptr [ebp-36], 24
jmp .L_0281
.L_0268:
mov eax, dword ptr [ebp+12]
and eax, 31
mov dword ptr [ebp-36], eax
.L_0281:
mov eax, dword ptr [ebp-36]
mov dword ptr [ebp-40], eax
jmp .L_026B
.L_026D:
sub esp, 8
push 31
push offset Lt_00B8
call RTLPROCLOOKUP
add esp, 16
mov dword ptr [ebp-12], eax
jmp .L_026A
.L_026E:
sub esp, 8
push 26
push offset Lt_00BB
call RTLPROCLOOKUP
add esp, 16
mov dword ptr [ebp-12], eax
jmp .L_026A
.L_026F:
mov eax, dword ptr [ebp+12]
and eax, 480
je .L_0270
mov dword ptr [ebp-44], 24
jmp .L_0282
.L_0270:
mov eax, dword ptr [ebp+12]
and eax, 31
mov dword ptr [ebp-44], eax
.L_0282:
mov eax, dword ptr [ebp-44]
imul eax, 28
mov ebx, dword ptr [SYMB_DTYPETB+eax+20]
mov dword ptr [ebp-48], ebx
jmp .L_0273
.L_0275:
sub esp, 8
push 29
push offset Lt_00C3
call RTLPROCLOOKUP
add esp, 16
mov dword ptr [ebp-12], eax
jmp .L_0272
.L_0276:
sub esp, 8
push 30
push offset Lt_00C6
call RTLPROCLOOKUP
add esp, 16
mov dword ptr [ebp-12], eax
jmp .L_0272
.L_0277:
sub esp, 8
push 27
push offset Lt_00BD
call RTLPROCLOOKUP
add esp, 16
mov dword ptr [ebp-12], eax
jmp .L_0272
.L_0278:
sub esp, 8
push 28
push offset Lt_00C0
call RTLPROCLOOKUP
add esp, 16
mov dword ptr [ebp-12], eax
jmp .L_0272
.L_0273:
mov eax, dword ptr [ebp-48]
add eax, 4294967295
cmp eax, 7
ja .L_0272
mov eax, dword ptr [ebp-48]
jmp dword ptr [.L_0279+eax*4-4]
.L_0279:
.int .L_0277
.int .L_0278
.int .L_0277
.int .L_0278
.int .L_0277
.int .L_0278
.int .L_0275
.int .L_0276
.L_0272:
jmp .L_026A
.L_027A:
sub esp, 12
push 0
push 0
push dword ptr [ebp+8]
push 0
push dword ptr [ebp+12]
call ASTNEWCONV
add esp, 32
mov dword ptr [ebp-4], eax
jmp .L_0265
jmp .L_026A
.L_027B:
jmp .L_0265
jmp .L_026A
.L_026B:
mov eax, dword ptr [ebp-40]
add eax, 4294967295
cmp eax, 23
ja .L_027B
mov eax, dword ptr [ebp-40]
jmp dword ptr [.L_027C+eax*4-4]
.L_027C:
.int .L_026E
.int .L_026F
.int .L_026F
.int .L_027B
.int .L_026F
.int .L_026F
.int .L_027B
.int .L_026F
.int .L_026F
.int .L_026F
.int .L_026F
.int .L_026F
.int .L_026F
.int .L_026F
.int .L_026D
.int .L_026D
.int .L_027B
.int .L_027B
.int .L_027B
.int .L_027A
.int .L_027B
.int .L_027B
.int .L_027B
.int .L_026F
.L_026A:
mov eax, dword ptr [ebp+8]
mov dword ptr [ebp-28], eax
mov dword ptr [ebp-24], -1
mov dword ptr [ebp-20], 0
sub esp, 12
push 0
lea eax, [ebp-32]
push eax
lea eax, [ebp-28]
push eax
push 1
push dword ptr [ebp-12]
call SYMBFINDCLOSESTOVLPROC
add esp, 32
mov dword ptr [ebp-12], eax
cmp dword ptr [ebp-12], 0
jne .L_027E
jmp .L_0265
.L_027E:
.L_027D:
sub esp, 8
push 0
push dword ptr [ebp-12]
call ASTNEWCALL
add esp, 16
mov dword ptr [ebp-8], eax
push -1
push -2147483648
push dword ptr [ebp+8]
push dword ptr [ebp-8]
call ASTNEWARG
add esp, 16
test eax, eax
jne .L_0280
jmp .L_0265
.L_0280:
.L_027F:
sub esp, 12
push 0
push 0
push dword ptr [ebp-8]
push 0
push dword ptr [ebp+12]
call ASTNEWCONV
add esp, 32
mov dword ptr [ebp-4], eax
.L_0265:
mov eax, dword ptr [ebp-4]
pop ebx
mov esp, ebp
pop ebp
.cfi_restore 5
.cfi_def_cfa 4, 4
ret
.size RTLSTRTOVAL, .-RTLSTRTOVAL
.cfi_endproc
.balign 16

.globl RTLSTRMID
RTLSTRMID:
.type RTLSTRMID, @function
.cfi_startproc
push ebp
.cfi_def_cfa_offset 8
.cfi_offset 5, -8
mov ebp, esp
.cfi_def_cfa_register 5
sub esp, 20
push ebx
mov dword ptr [ebp-4], 0
.L_0283:
mov dword ptr [ebp-4], 0
sub esp, 12
lea eax, [ebp+8]
push eax
call ASTTRYOVLSTRINGCONV
add esp, 16
mov eax, dword ptr [ebp+8]
mov ebx, dword ptr [eax+4]
and ebx, 511
cmp ebx, 7
je .L_0286
sub esp, 8
push 0
sub esp, 12
push 47
push offset Lt_008A
call RTLPROCLOOKUP
add esp, 20
push eax
call ASTNEWCALL
add esp, 16
mov dword ptr [ebp-8], eax
jmp .L_0285
.L_0286:
sub esp, 8
push 0
sub esp, 12
push 91
push offset Lt_008B
call RTLPROCLOOKUP
add esp, 20
push eax
call ASTNEWCALL
add esp, 16
mov dword ptr [ebp-8], eax
.L_0285:
push -1
push -2147483648
push dword ptr [ebp+8]
push dword ptr [ebp-8]
call ASTNEWARG
add esp, 16
test eax, eax
jne .L_0288
jmp .L_0284
.L_0288:
.L_0287:
push -1
push -2147483648
push dword ptr [ebp+12]
push dword ptr [ebp-8]
call ASTNEWARG
add esp, 16
test eax, eax
jne .L_028A
jmp .L_0284
.L_028A:
.L_0289:
push -1
push -2147483648
push dword ptr [ebp+16]
push dword ptr [ebp-8]
call ASTNEWARG
add esp, 16
test eax, eax
jne .L_028C
jmp .L_0284
.L_028C:
.L_028B:
mov eax, dword ptr [ebp-8]
mov dword ptr [ebp-4], eax
.L_0284:
mov eax, dword ptr [ebp-4]
pop ebx
mov esp, ebp
pop ebp
.cfi_restore 5
.cfi_def_cfa 4, 4
ret
.size RTLSTRMID, .-RTLSTRMID
.cfi_endproc
.balign 16

.globl RTLSTRASSIGNMID
RTLSTRASSIGNMID:
.type RTLSTRASSIGNMID, @function
.cfi_startproc
push ebp
.cfi_def_cfa_offset 8
.cfi_offset 5, -8
mov ebp, esp
.cfi_def_cfa_register 5
sub esp, 20
push ebx
mov dword ptr [ebp-4], 0
.L_028D:
mov dword ptr [ebp-4], 0
sub esp, 12
lea eax, [ebp+8]
push eax
call ASTTRYOVLSTRINGCONV
add esp, 16
mov eax, dword ptr [ebp+8]
mov ebx, dword ptr [eax+4]
and ebx, 511
cmp ebx, 7
je .L_0290
sub esp, 8
push 0
sub esp, 12
push 48
push offset Lt_008C
call RTLPROCLOOKUP
add esp, 20
push eax
call ASTNEWCALL
add esp, 16
mov dword ptr [ebp-8], eax
mov dword ptr [ebp-16], 4294967295
mov dword ptr [ebp-12], 4294967295
jmp .L_028F
.L_0290:
sub esp, 8
push 0
sub esp, 12
push 92
push offset Lt_008D
call RTLPROCLOOKUP
add esp, 20
push eax
call ASTNEWCALL
add esp, 16
mov dword ptr [ebp-8], eax
sub esp, 8
push 7
push dword ptr [ebp+8]
call RTLCALCSTRLEN
add esp, 16
mov dword ptr [ebp-16], eax
mov dword ptr [ebp-12], edx
.L_028F:
push -1
push -2147483648
push dword ptr [ebp+8]
push dword ptr [ebp-8]
call ASTNEWARG
add esp, 16
test eax, eax
jne .L_0292
jmp .L_028E
.L_0292:
.L_0291:
cmp dword ptr [ebp-12], 4294967295
jne .L_029D
cmp dword ptr [ebp-16], 4294967295
je .L_0294
.L_029D:
push -1
push -2147483648
sub esp, 8
push 0
push 8
push dword ptr [ebp-12]
push dword ptr [ebp-16]
call ASTNEWCONSTI
add esp, 24
push eax
push dword ptr [ebp-8]
call ASTNEWARG
add esp, 16
test eax, eax
jne .L_0296
jmp .L_028E
.L_0296:
.L_0295:
.L_0294:
.L_0293:
push -1
push -2147483648
push dword ptr [ebp+12]
push dword ptr [ebp-8]
call ASTNEWARG
add esp, 16
test eax, eax
jne .L_0298
jmp .L_028E
.L_0298:
.L_0297:
push -1
push -2147483648
push dword ptr [ebp+16]
push dword ptr [ebp-8]
call ASTNEWARG
add esp, 16
test eax, eax
jne .L_029A
jmp .L_028E
.L_029A:
.L_0299:
push -1
push -2147483648
push dword ptr [ebp+20]
push dword ptr [ebp-8]
call ASTNEWARG
add esp, 16
test eax, eax
jne .L_029C
jmp .L_028E
.L_029C:
.L_029B:
sub esp, 12
push dword ptr [ebp-8]
call ASTADD
add esp, 16
mov eax, dword ptr [ebp-8]
mov dword ptr [ebp-4], eax
.L_028E:
mov eax, dword ptr [ebp-4]
pop ebx
mov esp, ebp
pop ebp
.cfi_restore 5
.cfi_def_cfa 4, 4
ret
.size RTLSTRASSIGNMID, .-RTLSTRASSIGNMID
.cfi_endproc
.balign 16

.globl RTLSTRLRSET
RTLSTRLRSET:
.type RTLSTRLRSET, @function
.cfi_startproc
push ebp
.cfi_def_cfa_offset 8
.cfi_offset 5, -8
mov ebp, esp
.cfi_def_cfa_register 5
sub esp, 20
push ebx
mov dword ptr [ebp-4], 0
.L_029E:
mov dword ptr [ebp-4], 0
mov eax, dword ptr [ebp+8]
mov ebx, dword ptr [eax+4]
and ebx, 511
cmp ebx, 7
je .L_02A1
sub esp, 8
push 0
cmp dword ptr [ebp+16], 0
je .L_02A2
sub esp, 12
push 53
push offset Lt_0096
call RTLPROCLOOKUP
add esp, 20
mov dword ptr [ebp-12], eax
jmp .L_02AA
.L_02A2:
sub esp, 12
push 52
push offset Lt_0094
call RTLPROCLOOKUP
add esp, 20
mov dword ptr [ebp-12], eax
.L_02AA:
push dword ptr [ebp-12]
call ASTNEWCALL
add esp, 16
mov dword ptr [ebp-8], eax
jmp .L_02A0
.L_02A1:
sub esp, 8
push 0
cmp dword ptr [ebp+16], 0
je .L_02A4
sub esp, 12
push 97
push offset Lt_0097
call RTLPROCLOOKUP
add esp, 20
mov dword ptr [ebp-12], eax
jmp .L_02AB
.L_02A4:
sub esp, 12
push 96
push offset Lt_0095
call RTLPROCLOOKUP
add esp, 20
mov dword ptr [ebp-12], eax
.L_02AB:
push dword ptr [ebp-12]
call ASTNEWCALL
add esp, 16
mov dword ptr [ebp-8], eax
.L_02A0:
push -1
push -2147483648
push dword ptr [ebp+8]
push dword ptr [ebp-8]
call ASTNEWARG
add esp, 16
test eax, eax
jne .L_02A7
jmp .L_029F
.L_02A7:
.L_02A6:
push -1
push -2147483648
push dword ptr [ebp+12]
push dword ptr [ebp-8]
call ASTNEWARG
add esp, 16
test eax, eax
jne .L_02A9
jmp .L_029F
.L_02A9:
.L_02A8:
sub esp, 12
push dword ptr [ebp-8]
call ASTADD
add esp, 16
mov dword ptr [ebp-4], -1
.L_029F:
mov eax, dword ptr [ebp-4]
pop ebx
mov esp, ebp
pop ebp
.cfi_restore 5
.cfi_def_cfa 4, 4
ret
.size RTLSTRLRSET, .-RTLSTRLRSET
.cfi_endproc
.balign 16

.globl RTLSTRFILL
RTLSTRFILL:
.type RTLSTRFILL, @function
.cfi_startproc
push ebp
.cfi_def_cfa_offset 8
.cfi_offset 5, -8
mov ebp, esp
.cfi_def_cfa_register 5
sub esp, 20
push ebx
mov dword ptr [ebp-4], 0
.L_02AC:
mov dword ptr [ebp-4], 0
mov eax, dword ptr [ebp+12]
mov ebx, dword ptr [eax+4]
and ebx, 511
mov dword ptr [ebp-16], ebx
cmp dword ptr [ebp-16], 17
je .L_02B1
.L_02B2:
cmp dword ptr [ebp-16], 18
je .L_02B1
.L_02B3:
cmp dword ptr [ebp-16], 4
jne .L_02B0
.L_02B1:
sub esp, 8
push 50
push offset Lt_0090
call RTLPROCLOOKUP
add esp, 16
mov dword ptr [ebp-12], eax
jmp .L_02AE
.L_02B0:
sub esp, 8
push 49
push offset Lt_008E
call RTLPROCLOOKUP
add esp, 16
mov dword ptr [ebp-12], eax
.L_02B4:
.L_02AE:
sub esp, 8
push 0
push dword ptr [ebp-12]
call ASTNEWCALL
add esp, 16
mov dword ptr [ebp-8], eax
push -1
push -2147483648
push dword ptr [ebp+8]
push dword ptr [ebp-8]
call ASTNEWARG
add esp, 16
test eax, eax
jne .L_02B6
jmp .L_02AD
.L_02B6:
.L_02B5:
push -1
push -2147483648
push dword ptr [ebp+12]
push dword ptr [ebp-8]
call ASTNEWARG
add esp, 16
test eax, eax
jne .L_02B8
jmp .L_02AD
.L_02B8:
.L_02B7:
mov eax, dword ptr [ebp-8]
mov dword ptr [ebp-4], eax
.L_02AD:
mov eax, dword ptr [ebp-4]
pop ebx
mov esp, ebp
pop ebp
.cfi_restore 5
.cfi_def_cfa 4, 4
ret
.size RTLSTRFILL, .-RTLSTRFILL
.cfi_endproc
.balign 16

.globl RTLWSTRFILL
RTLWSTRFILL:
.type RTLWSTRFILL, @function
.cfi_startproc
push ebp
.cfi_def_cfa_offset 8
.cfi_offset 5, -8
mov ebp, esp
.cfi_def_cfa_register 5
sub esp, 20
push ebx
mov dword ptr [ebp-4], 0
.L_02B9:
mov dword ptr [ebp-4], 0
mov eax, dword ptr [ebp+12]
mov ebx, dword ptr [eax+4]
and ebx, 511
cmp ebx, 7
jne .L_02BC
sub esp, 8
push 94
push offset Lt_0091
call RTLPROCLOOKUP
add esp, 16
mov dword ptr [ebp-12], eax
jmp .L_02BB
.L_02BC:
sub esp, 8
push 93
push offset Lt_008F
call RTLPROCLOOKUP
add esp, 16
mov dword ptr [ebp-12], eax
.L_02BB:
sub esp, 8
push 0
push dword ptr [ebp-12]
call ASTNEWCALL
add esp, 16
mov dword ptr [ebp-8], eax
push -1
push -2147483648
push dword ptr [ebp+8]
push dword ptr [ebp-8]
call ASTNEWARG
add esp, 16
test eax, eax
jne .L_02BE
jmp .L_02BA
.L_02BE:
.L_02BD:
push -1
push -2147483648
push dword ptr [ebp+12]
push dword ptr [ebp-8]
call ASTNEWARG
add esp, 16
test eax, eax
jne .L_02C0
jmp .L_02BA
.L_02C0:
.L_02BF:
mov eax, dword ptr [ebp-8]
mov dword ptr [ebp-4], eax
.L_02BA:
mov eax, dword ptr [ebp-4]
pop ebx
mov esp, ebp
pop ebp
.cfi_restore 5
.cfi_def_cfa 4, 4
ret
.size RTLWSTRFILL, .-RTLWSTRFILL
.cfi_endproc
.balign 16

.globl RTLSTRLEN
RTLSTRLEN:
.type RTLSTRLEN, @function
.cfi_startproc
push ebp
.cfi_def_cfa_offset 8
.cfi_offset 5, -8
mov ebp, esp
.cfi_def_cfa_register 5
sub esp, 20
push ebx
mov dword ptr [ebp-4], 0
.L_02C1:
mov dword ptr [ebp-4], 0
sub esp, 8
push 0
sub esp, 12
push 51
push offset Lt_0092
call RTLPROCLOOKUP
add esp, 20
push eax
call ASTNEWCALL
add esp, 16
mov dword ptr [ebp-8], eax
sub esp, 8
mov eax, dword ptr [ebp+8]
mov ebx, dword ptr [eax+4]
and ebx, 511
push ebx
push dword ptr [ebp+8]
call RTLCALCSTRLEN
add esp, 16
mov dword ptr [ebp-16], eax
mov dword ptr [ebp-12], edx
push -1
push 17
push dword ptr [ebp+8]
push dword ptr [ebp-8]
call ASTNEWARG
add esp, 16
test eax, eax
jne .L_02C4
jmp .L_02C2
.L_02C4:
.L_02C3:
push -1
push -2147483648
sub esp, 8
push 0
push 8
push dword ptr [ebp-12]
push dword ptr [ebp-16]
call ASTNEWCONSTI
add esp, 24
push eax
push dword ptr [ebp-8]
call ASTNEWARG
add esp, 16
test eax, eax
jne .L_02C6
jmp .L_02C2
.L_02C6:
.L_02C5:
mov eax, dword ptr [ebp-8]
mov dword ptr [ebp-4], eax
.L_02C2:
mov eax, dword ptr [ebp-4]
pop ebx
mov esp, ebp
pop ebp
.cfi_restore 5
.cfi_def_cfa 4, 4
ret
.size RTLSTRLEN, .-RTLSTRLEN
.cfi_endproc
.balign 16

.globl RTLWSTRLEN
RTLWSTRLEN:
.type RTLWSTRLEN, @function
.cfi_startproc
push ebp
.cfi_def_cfa_offset 8
.cfi_offset 5, -8
mov ebp, esp
.cfi_def_cfa_register 5
sub esp, 8
mov dword ptr [ebp-4], 0
.L_02C7:
mov dword ptr [ebp-4], 0
sub esp, 8
push 0
sub esp, 12
push 95
push offset Lt_0093
call RTLPROCLOOKUP
add esp, 20
push eax
call ASTNEWCALL
add esp, 16
mov dword ptr [ebp-8], eax
push -1
push -2147483648
push dword ptr [ebp+8]
push dword ptr [ebp-8]
call ASTNEWARG
add esp, 16
test eax, eax
jne .L_02CA
jmp .L_02C8
.L_02CA:
.L_02C9:
mov eax, dword ptr [ebp-8]
mov dword ptr [ebp-4], eax
.L_02C8:
mov eax, dword ptr [ebp-4]
mov esp, ebp
pop ebp
.cfi_restore 5
.cfi_def_cfa 4, 4
ret
.size RTLWSTRLEN, .-RTLWSTRLEN
.cfi_endproc
.balign 16

.globl RTLSTRASC
RTLSTRASC:
.type RTLSTRASC, @function
.cfi_startproc
push ebp
.cfi_def_cfa_offset 8
.cfi_offset 5, -8
mov ebp, esp
.cfi_def_cfa_register 5
sub esp, 20
push ebx
mov dword ptr [ebp-4], 0
.L_02CB:
mov dword ptr [ebp-4], 0
sub esp, 12
lea eax, [ebp+8]
push eax
call ASTTRYOVLSTRINGCONV
add esp, 16
mov eax, dword ptr [ebp+8]
mov ebx, dword ptr [eax+4]
and ebx, 511
cmp ebx, 7
je .L_02CE
sub esp, 8
push 0
sub esp, 12
push 54
push offset Lt_0098
call RTLPROCLOOKUP
add esp, 20
push eax
call ASTNEWCALL
add esp, 16
mov dword ptr [ebp-8], eax
jmp .L_02CD
.L_02CE:
sub esp, 8
push 0
sub esp, 12
push 98
push offset Lt_0099
call RTLPROCLOOKUP
add esp, 20
push eax
call ASTNEWCALL
add esp, 16
mov dword ptr [ebp-8], eax
.L_02CD:
push -1
push -2147483648
push dword ptr [ebp+8]
push dword ptr [ebp-8]
call ASTNEWARG
add esp, 16
test eax, eax
jne .L_02D0
jmp .L_02CC
.L_02D0:
.L_02CF:
cmp dword ptr [ebp+12], 0
jne .L_02D2
push 0
push 8
push 0
push 1
call ASTNEWCONSTI
add esp, 16
mov dword ptr [ebp+12], eax
.L_02D2:
.L_02D1:
push -1
push -2147483648
push dword ptr [ebp+12]
push dword ptr [ebp-8]
call ASTNEWARG
add esp, 16
test eax, eax
jne .L_02D4
jmp .L_02CC
.L_02D4:
.L_02D3:
mov eax, dword ptr [ebp-8]
mov dword ptr [ebp-4], eax
.L_02CC:
mov eax, dword ptr [ebp-4]
pop ebx
mov esp, ebp
pop ebp
.cfi_restore 5
.cfi_def_cfa 4, 4
ret
.size RTLSTRASC, .-RTLSTRASC
.cfi_endproc
.balign 16

.globl RTLSTRCHR
RTLSTRCHR:
.type RTLSTRCHR, @function
.cfi_startproc
push ebp
.cfi_def_cfa_offset 8
.cfi_offset 5, -8
mov ebp, esp
.cfi_def_cfa_register 5
sub esp, 68
push ebx
mov dword ptr [ebp-4], 0
.L_02D5:
mov dword ptr [ebp-4], 0
cmp dword ptr [ebp+16], 0
jne .L_02D8
sub esp, 8
push 0
sub esp, 12
push 55
push offset Lt_009A
call RTLPROCLOOKUP
add esp, 20
push eax
call ASTNEWCALL
add esp, 16
mov dword ptr [ebp-8], eax
jmp .L_02D7
.L_02D8:
sub esp, 8
push 0
sub esp, 12
push 99
push offset Lt_009B
call RTLPROCLOOKUP
add esp, 20
push eax
call ASTNEWCALL
add esp, 16
mov dword ptr [ebp-8], eax
.L_02D7:
push -1
push -2147483648
sub esp, 8
push 0
push 8
mov ebx, dword ptr [ebp+8]
mov eax, ebx
sar eax, 31
push eax
push ebx
call ASTNEWCONSTI
add esp, 24
push eax
push dword ptr [ebp-8]
call ASTNEWARG
add esp, 16
test eax, eax
jne .L_02DA
jmp .L_02D6
.L_02DA:
.L_02D9:
mov dword ptr [ebp-20], 0
mov eax, dword ptr [ebp+8]
dec eax
mov dword ptr [ebp-24], eax
jmp .L_02DC
.L_02DF:
mov eax, dword ptr [ebp-20]
sal eax, 2
mov ebx, dword ptr [ebp+12]
add eax, dword ptr [ebx]
mov ebx, dword ptr [eax]
mov dword ptr [ebp-12], ebx
mov ebx, dword ptr [ebp-12]
mov eax, dword ptr [ebx+4]
and eax, 511
mov dword ptr [ebp-16], eax
mov eax, dword ptr [ebp-12]
mov ebx, dword ptr [eax+4]
and ebx, 511
and ebx, 480
je .L_02E0
mov dword ptr [ebp-28], 24
jmp .L_02F2
.L_02E0:
mov ebx, dword ptr [ebp-12]
mov eax, dword ptr [ebx+4]
and eax, 511
and eax, 31
mov dword ptr [ebp-28], eax
.L_02F2:
mov eax, dword ptr [ebp-28]
imul eax, 28
cmp dword ptr [SYMB_DTYPETB+eax], 2
jl .L_02E3
sub esp, 12
push 0
push 1
push 0
mov dword ptr [ebp-52], 0
mov dword ptr [ebp-48], 0
mov dword ptr [ebp-44], 0
sub esp, 4
push 0
push -1
sub esp, 8
push -1
sub esp, 12
mov eax, dword ptr [ebp-20]
inc eax
push eax
call fb_IntToStr
add esp, 16
push eax
push 15
push offset Lt_02E4
mov dword ptr [ebp-40], 0
mov dword ptr [ebp-36], 0
mov dword ptr [ebp-32], 0
lea eax, [ebp-40]
push eax
call fb_StrConcat
add esp, 28
push eax
push -1
lea eax, [ebp-52]
push eax
call fb_StrAssign
add esp, 24
push dword ptr [ebp-52]
push 58
call ERRREPORTEX
add esp, 32
sub esp, 12
lea eax, [ebp-52]
push eax
call fb_StrDelete
add esp, 16
jmp .L_02D6
.L_02E3:
.L_02E2:
mov eax, dword ptr [ebp-16]
mov dword ptr [ebp-32], eax
jmp .L_02E8
.L_02EA:
sub esp, 12
push 0
push 1
push 0
mov dword ptr [ebp-56], 0
mov dword ptr [ebp-52], 0
mov dword ptr [ebp-48], 0
sub esp, 4
push 0
push -1
sub esp, 8
push -1
sub esp, 12
mov eax, dword ptr [ebp-20]
inc eax
push eax
call fb_IntToStr
add esp, 16
push eax
push 15
push offset Lt_02E4
mov dword ptr [ebp-44], 0
mov dword ptr [ebp-40], 0
mov dword ptr [ebp-36], 0
lea eax, [ebp-44]
push eax
call fb_StrConcat
add esp, 28
push eax
push -1
lea eax, [ebp-56]
push eax
call fb_StrAssign
add esp, 24
push dword ptr [ebp-56]
push 58
call ERRREPORTEX
add esp, 32
sub esp, 12
lea eax, [ebp-56]
push eax
call fb_StrDelete
add esp, 16
jmp .L_02D6
jmp .L_02E7
.L_02ED:
jmp .L_02E7
.L_02EE:
sub esp, 12
push 0
push 0
push dword ptr [ebp-12]
push 0
push 8
call ASTNEWCONV
add esp, 32
mov dword ptr [ebp-12], eax
jmp .L_02E7
.L_02E8:
mov eax, dword ptr [ebp-32]
add eax, 4294967292
cmp eax, 4
ja .L_02EE
mov eax, dword ptr [ebp-32]
jmp dword ptr [.L_02EF+eax*4-16]
.L_02EF:
.int .L_02EA
.int .L_02EE
.int .L_02EE
.int .L_02EA
.int .L_02ED
.L_02E7:
push -1
push 8
push dword ptr [ebp-12]
push dword ptr [ebp-8]
call ASTNEWARG
add esp, 16
test eax, eax
jne .L_02F1
jmp .L_02D6
.L_02F1:
.L_02F0:
.L_02DD:
inc dword ptr [ebp-20]
.L_02DC:
mov eax, dword ptr [ebp-24]
cmp dword ptr [ebp-20], eax
jle .L_02DF
.L_02DE:
mov eax, dword ptr [ebp-8]
mov dword ptr [ebp-4], eax
.L_02D6:
mov eax, dword ptr [ebp-4]
pop ebx
mov esp, ebp
pop ebp
.cfi_restore 5
.cfi_def_cfa 4, 4
ret
.size RTLSTRCHR, .-RTLSTRCHR
.cfi_endproc
.balign 16

.globl RTLSTRINSTR
RTLSTRINSTR:
.type RTLSTRINSTR, @function
.cfi_startproc
push ebp
.cfi_def_cfa_offset 8
.cfi_offset 5, -8
mov ebp, esp
.cfi_def_cfa_register 5
sub esp, 20
push ebx
mov dword ptr [ebp-4], 0
.L_02F3:
mov dword ptr [ebp-4], 0
sub esp, 12
lea eax, [ebp+12]
push eax
call ASTTRYOVLSTRINGCONV
add esp, 16
cmp dword ptr [ebp+16], 0
je .L_02F6
sub esp, 12
lea eax, [ebp+16]
push eax
call ASTTRYOVLSTRINGCONV
add esp, 16
.L_02F6:
.L_02F5:
mov eax, dword ptr [ebp+12]
mov ebx, dword ptr [eax+4]
and ebx, 511
mov dword ptr [ebp-16], ebx
cmp dword ptr [ebp+20], 0
je .L_02F8
cmp dword ptr [ebp-16], 7
je .L_02FA
sub esp, 8
push 57
push offset Lt_009E
call RTLPROCLOOKUP
add esp, 16
mov dword ptr [ebp-12], eax
jmp .L_02F9
.L_02FA:
sub esp, 8
push 101
push offset Lt_009F
call RTLPROCLOOKUP
add esp, 16
mov dword ptr [ebp-12], eax
.L_02F9:
jmp .L_02F7
.L_02F8:
cmp dword ptr [ebp-16], 7
je .L_02FC
sub esp, 8
push 56
push offset Lt_009C
call RTLPROCLOOKUP
add esp, 16
mov dword ptr [ebp-12], eax
jmp .L_02FB
.L_02FC:
sub esp, 8
push 100
push offset Lt_009D
call RTLPROCLOOKUP
add esp, 16
mov dword ptr [ebp-12], eax
.L_02FB:
.L_02F7:
sub esp, 8
push 0
push dword ptr [ebp-12]
call ASTNEWCALL
add esp, 16
mov dword ptr [ebp-8], eax
push -1
push -2147483648
push dword ptr [ebp+8]
push dword ptr [ebp-8]
call ASTNEWARG
add esp, 16
test eax, eax
jne .L_02FE
jmp .L_02F4
.L_02FE:
.L_02FD:
push -1
push -2147483648
push dword ptr [ebp+12]
push dword ptr [ebp-8]
call ASTNEWARG
add esp, 16
test eax, eax
jne .L_0300
jmp .L_02F4
.L_0300:
.L_02FF:
push -1
push -2147483648
push dword ptr [ebp+16]
push dword ptr [ebp-8]
call ASTNEWARG
add esp, 16
test eax, eax
jne .L_0302
jmp .L_02F4
.L_0302:
.L_0301:
mov eax, dword ptr [ebp-8]
mov dword ptr [ebp-4], eax
.L_02F4:
mov eax, dword ptr [ebp-4]
pop ebx
mov esp, ebp
pop ebp
.cfi_restore 5
.cfi_def_cfa 4, 4
ret
.size RTLSTRINSTR, .-RTLSTRINSTR
.cfi_endproc
.balign 16

.globl RTLSTRINSTRREV
RTLSTRINSTRREV:
.type RTLSTRINSTRREV, @function
.cfi_startproc
push ebp
.cfi_def_cfa_offset 8
.cfi_offset 5, -8
mov ebp, esp
.cfi_def_cfa_register 5
sub esp, 20
push ebx
mov dword ptr [ebp-4], 0
.L_0303:
mov dword ptr [ebp-4], 0
sub esp, 12
lea eax, [ebp+12]
push eax
call ASTTRYOVLSTRINGCONV
add esp, 16
cmp dword ptr [ebp+16], 0
je .L_0306
sub esp, 12
lea eax, [ebp+16]
push eax
call ASTTRYOVLSTRINGCONV
add esp, 16
.L_0306:
.L_0305:
mov eax, dword ptr [ebp+12]
mov ebx, dword ptr [eax+4]
and ebx, 511
mov dword ptr [ebp-16], ebx
cmp dword ptr [ebp+20], 0
je .L_0308
cmp dword ptr [ebp-16], 7
je .L_030A
sub esp, 8
push 59
push offset Lt_00A2
call RTLPROCLOOKUP
add esp, 16
mov dword ptr [ebp-12], eax
jmp .L_0309
.L_030A:
sub esp, 8
push 103
push offset Lt_00A3
call RTLPROCLOOKUP
add esp, 16
mov dword ptr [ebp-12], eax
.L_0309:
jmp .L_0307
.L_0308:
cmp dword ptr [ebp-16], 7
je .L_030C
sub esp, 8
push 58
push offset Lt_00A0
call RTLPROCLOOKUP
add esp, 16
mov dword ptr [ebp-12], eax
jmp .L_030B
.L_030C:
sub esp, 8
push 102
push offset Lt_00A1
call RTLPROCLOOKUP
add esp, 16
mov dword ptr [ebp-12], eax
.L_030B:
.L_0307:
sub esp, 8
push 0
push dword ptr [ebp-12]
call ASTNEWCALL
add esp, 16
mov dword ptr [ebp-8], eax
push -1
push -2147483648
push dword ptr [ebp+12]
push dword ptr [ebp-8]
call ASTNEWARG
add esp, 16
test eax, eax
jne .L_030E
jmp .L_0304
.L_030E:
.L_030D:
push -1
push -2147483648
push dword ptr [ebp+16]
push dword ptr [ebp-8]
call ASTNEWARG
add esp, 16
test eax, eax
jne .L_0310
jmp .L_0304
.L_0310:
.L_030F:
push -1
push -2147483648
push dword ptr [ebp+8]
push dword ptr [ebp-8]
call ASTNEWARG
add esp, 16
test eax, eax
jne .L_0312
jmp .L_0304
.L_0312:
.L_0311:
mov eax, dword ptr [ebp-8]
mov dword ptr [ebp-4], eax
.L_0304:
mov eax, dword ptr [ebp-4]
pop ebx
mov esp, ebp
pop ebp
.cfi_restore 5
.cfi_def_cfa 4, 4
ret
.size RTLSTRINSTRREV, .-RTLSTRINSTRREV
.cfi_endproc
.balign 16

.globl RTLSTRTRIM
RTLSTRTRIM:
.type RTLSTRTRIM, @function
.cfi_startproc
push ebp
.cfi_def_cfa_offset 8
.cfi_offset 5, -8
mov ebp, esp
.cfi_def_cfa_register 5
sub esp, 20
push ebx
mov dword ptr [ebp-4], 0
.L_0313:
mov dword ptr [ebp-4], 0
sub esp, 12
lea eax, [ebp+8]
push eax
call ASTTRYOVLSTRINGCONV
add esp, 16
cmp dword ptr [ebp+12], 0
je .L_0316
sub esp, 12
lea eax, [ebp+12]
push eax
call ASTTRYOVLSTRINGCONV
add esp, 16
.L_0316:
.L_0315:
mov eax, dword ptr [ebp+8]
mov ebx, dword ptr [eax+4]
and ebx, 511
mov dword ptr [ebp-16], ebx
cmp dword ptr [ebp+16], 0
je .L_0318
cmp dword ptr [ebp-16], 7
je .L_031A
sub esp, 8
push 61
push offset Lt_00A6
call RTLPROCLOOKUP
add esp, 16
mov dword ptr [ebp-12], eax
jmp .L_0319
.L_031A:
sub esp, 8
push 105
push offset Lt_00A7
call RTLPROCLOOKUP
add esp, 16
mov dword ptr [ebp-12], eax
.L_0319:
jmp .L_0317
.L_0318:
cmp dword ptr [ebp+12], 0
je .L_031B
cmp dword ptr [ebp-16], 7
je .L_031D
sub esp, 8
push 62
push offset Lt_00A8
call RTLPROCLOOKUP
add esp, 16
mov dword ptr [ebp-12], eax
jmp .L_031C
.L_031D:
sub esp, 8
push 106
push offset Lt_00A9
call RTLPROCLOOKUP
add esp, 16
mov dword ptr [ebp-12], eax
.L_031C:
jmp .L_0317
.L_031B:
cmp dword ptr [ebp-16], 7
je .L_031F
sub esp, 8
push 60
push offset Lt_00A4
call RTLPROCLOOKUP
add esp, 16
mov dword ptr [ebp-12], eax
jmp .L_031E
.L_031F:
sub esp, 8
push 104
push offset Lt_00A5
call RTLPROCLOOKUP
add esp, 16
mov dword ptr [ebp-12], eax
.L_031E:
.L_0317:
sub esp, 8
push 0
push dword ptr [ebp-12]
call ASTNEWCALL
add esp, 16
mov dword ptr [ebp-8], eax
push -1
push -2147483648
push dword ptr [ebp+8]
push dword ptr [ebp-8]
call ASTNEWARG
add esp, 16
test eax, eax
jne .L_0321
jmp .L_0314
.L_0321:
.L_0320:
cmp dword ptr [ebp+12], 0
setne al
shr eax, 1
sbb eax, eax
or eax, dword ptr [ebp+16]
je .L_0323
push -1
push -2147483648
push dword ptr [ebp+12]
push dword ptr [ebp-8]
call ASTNEWARG
add esp, 16
test eax, eax
jne .L_0325
jmp .L_0314
.L_0325:
.L_0324:
.L_0323:
.L_0322:
mov eax, dword ptr [ebp-8]
mov dword ptr [ebp-4], eax
.L_0314:
mov eax, dword ptr [ebp-4]
pop ebx
mov esp, ebp
pop ebp
.cfi_restore 5
.cfi_def_cfa 4, 4
ret
.size RTLSTRTRIM, .-RTLSTRTRIM
.cfi_endproc
.balign 16

.globl RTLSTRRTRIM
RTLSTRRTRIM:
.type RTLSTRRTRIM, @function
.cfi_startproc
push ebp
.cfi_def_cfa_offset 8
.cfi_offset 5, -8
mov ebp, esp
.cfi_def_cfa_register 5
sub esp, 20
push ebx
mov dword ptr [ebp-4], 0
.L_0327:
mov dword ptr [ebp-4], 0
sub esp, 12
lea eax, [ebp+8]
push eax
call ASTTRYOVLSTRINGCONV
add esp, 16
cmp dword ptr [ebp+12], 0
je .L_032A
sub esp, 12
lea eax, [ebp+12]
push eax
call ASTTRYOVLSTRINGCONV
add esp, 16
.L_032A:
.L_0329:
mov eax, dword ptr [ebp+8]
mov ebx, dword ptr [eax+4]
and ebx, 511
mov dword ptr [ebp-16], ebx
cmp dword ptr [ebp+16], 0
je .L_032C
cmp dword ptr [ebp-16], 7
je .L_032E
sub esp, 8
push 64
push offset Lt_00AC
call RTLPROCLOOKUP
add esp, 16
mov dword ptr [ebp-12], eax
jmp .L_032D
.L_032E:
sub esp, 8
push 108
push offset Lt_00AD
call RTLPROCLOOKUP
add esp, 16
mov dword ptr [ebp-12], eax
.L_032D:
jmp .L_032B
.L_032C:
cmp dword ptr [ebp+12], 0
je .L_032F
cmp dword ptr [ebp-16], 7
je .L_0331
sub esp, 8
push 65
push offset Lt_00AE
call RTLPROCLOOKUP
add esp, 16
mov dword ptr [ebp-12], eax
jmp .L_0330
.L_0331:
sub esp, 8
push 109
push offset Lt_00AF
call RTLPROCLOOKUP
add esp, 16
mov dword ptr [ebp-12], eax
.L_0330:
jmp .L_032B
.L_032F:
cmp dword ptr [ebp-16], 7
je .L_0333
sub esp, 8
push 63
push offset Lt_00AA
call RTLPROCLOOKUP
add esp, 16
mov dword ptr [ebp-12], eax
jmp .L_0332
.L_0333:
sub esp, 8
push 107
push offset Lt_00AB
call RTLPROCLOOKUP
add esp, 16
mov dword ptr [ebp-12], eax
.L_0332:
.L_032B:
sub esp, 8
push 0
push dword ptr [ebp-12]
call ASTNEWCALL
add esp, 16
mov dword ptr [ebp-8], eax
push -1
push -2147483648
push dword ptr [ebp+8]
push dword ptr [ebp-8]
call ASTNEWARG
add esp, 16
test eax, eax
jne .L_0335
jmp .L_0328
.L_0335:
.L_0334:
cmp dword ptr [ebp+12], 0
setne al
shr eax, 1
sbb eax, eax
or eax, dword ptr [ebp+16]
je .L_0337
push -1
push -2147483648
push dword ptr [ebp+12]
push dword ptr [ebp-8]
call ASTNEWARG
add esp, 16
test eax, eax
jne .L_0339
jmp .L_0328
.L_0339:
.L_0338:
.L_0337:
.L_0336:
mov eax, dword ptr [ebp-8]
mov dword ptr [ebp-4], eax
.L_0328:
mov eax, dword ptr [ebp-4]
pop ebx
mov esp, ebp
pop ebp
.cfi_restore 5
.cfi_def_cfa 4, 4
ret
.size RTLSTRRTRIM, .-RTLSTRRTRIM
.cfi_endproc
.balign 16

.globl RTLSTRLTRIM
RTLSTRLTRIM:
.type RTLSTRLTRIM, @function
.cfi_startproc
push ebp
.cfi_def_cfa_offset 8
.cfi_offset 5, -8
mov ebp, esp
.cfi_def_cfa_register 5
sub esp, 20
push ebx
mov dword ptr [ebp-4], 0
.L_033B:
mov dword ptr [ebp-4], 0
sub esp, 12
lea eax, [ebp+8]
push eax
call ASTTRYOVLSTRINGCONV
add esp, 16
cmp dword ptr [ebp+12], 0
je .L_033E
sub esp, 12
lea eax, [ebp+12]
push eax
call ASTTRYOVLSTRINGCONV
add esp, 16
.L_033E:
.L_033D:
mov eax, dword ptr [ebp+8]
mov ebx, dword ptr [eax+4]
and ebx, 511
mov dword ptr [ebp-16], ebx
cmp dword ptr [ebp+16], 0
je .L_0340
cmp dword ptr [ebp-16], 7
je .L_0342
sub esp, 8
push 67
push offset Lt_00B2
call RTLPROCLOOKUP
add esp, 16
mov dword ptr [ebp-12], eax
jmp .L_0341
.L_0342:
sub esp, 8
push 111
push offset Lt_00B3
call RTLPROCLOOKUP
add esp, 16
mov dword ptr [ebp-12], eax
.L_0341:
jmp .L_033F
.L_0340:
cmp dword ptr [ebp+12], 0
je .L_0343
cmp dword ptr [ebp-16], 7
je .L_0345
sub esp, 8
push 68
push offset Lt_00B4
call RTLPROCLOOKUP
add esp, 16
mov dword ptr [ebp-12], eax
jmp .L_0344
.L_0345:
sub esp, 8
push 112
push offset Lt_00B5
call RTLPROCLOOKUP
add esp, 16
mov dword ptr [ebp-12], eax
.L_0344:
jmp .L_033F
.L_0343:
cmp dword ptr [ebp-16], 7
je .L_0347
sub esp, 8
push 66
push offset Lt_00B0
call RTLPROCLOOKUP
add esp, 16
mov dword ptr [ebp-12], eax
jmp .L_0346
.L_0347:
sub esp, 8
push 110
push offset Lt_00B1
call RTLPROCLOOKUP
add esp, 16
mov dword ptr [ebp-12], eax
.L_0346:
.L_033F:
sub esp, 8
push 0
push dword ptr [ebp-12]
call ASTNEWCALL
add esp, 16
mov dword ptr [ebp-8], eax
push -1
push -2147483648
push dword ptr [ebp+8]
push dword ptr [ebp-8]
call ASTNEWARG
add esp, 16
test eax, eax
jne .L_0349
jmp .L_033C
.L_0349:
.L_0348:
cmp dword ptr [ebp+12], 0
setne al
shr eax, 1
sbb eax, eax
or eax, dword ptr [ebp+16]
je .L_034B
push -1
push -2147483648
push dword ptr [ebp+12]
push dword ptr [ebp-8]
call ASTNEWARG
add esp, 16
test eax, eax
jne .L_034D
jmp .L_033C
.L_034D:
.L_034C:
.L_034B:
.L_034A:
mov eax, dword ptr [ebp-8]
mov dword ptr [ebp-4], eax
.L_033C:
mov eax, dword ptr [ebp-4]
pop ebx
mov esp, ebp
pop ebp
.cfi_restore 5
.cfi_def_cfa 4, 4
ret
.size RTLSTRLTRIM, .-RTLSTRLTRIM
.cfi_endproc
.balign 16

.globl RTLSTRCASE
RTLSTRCASE:
.type RTLSTRCASE, @function
.cfi_startproc
push ebp
.cfi_def_cfa_offset 8
.cfi_offset 5, -8
mov ebp, esp
.cfi_def_cfa_register 5
sub esp, 24
mov dword ptr [ebp-4], 0
.L_036D:
cmp dword ptr [ebp+12], 0
je .L_0370
sub esp, 12
push dword ptr [ebp+8]
call ASTGETSTRLITSYMBOL
add esp, 16
mov dword ptr [ebp-16], eax
cmp dword ptr [ebp-16], 0
je .L_0372
mov eax, dword ptr [ebp+12]
cmp dword ptr [eax], 16
jne .L_0374
sub esp, 12
push dword ptr [ebp+12]
call ASTCONSTGETASINT64
add esp, 16
cmp edx, 0
jne .L_0376
cmp eax, 1
jne .L_0376
.L_0383:
sub esp, 8
push dword ptr [ebp+16]
push dword ptr [ebp-16]
call HEVALASCCASE
add esp, 16
mov dword ptr [ebp-16], eax
cmp dword ptr [ebp-16], 0
je .L_0378
sub esp, 12
push 0
push -2147483648
push 0
push 0
push dword ptr [ebp-16]
call ASTNEWVAR
add esp, 32
mov dword ptr [ebp-4], eax
jmp .L_036E
.L_0378:
.L_0377:
.L_0376:
.L_0375:
.L_0374:
.L_0373:
.L_0372:
.L_0371:
.L_0370:
.L_036F:
sub esp, 12
lea eax, [ebp+8]
push eax
call ASTTRYOVLSTRINGCONV
add esp, 16
cmp dword ptr [ebp+16], 0
je .L_037A
mov eax, dword ptr [ebp+8]
mov edx, dword ptr [eax+4]
and edx, 511
cmp edx, 7
jne .L_037C
sub esp, 8
push 113
push offset Lt_011E
call RTLPROCLOOKUP
add esp, 16
mov dword ptr [ebp-12], eax
jmp .L_037B
.L_037C:
sub esp, 8
push 69
push offset Lt_011D
call RTLPROCLOOKUP
add esp, 16
mov dword ptr [ebp-12], eax
.L_037B:
jmp .L_0379
.L_037A:
mov eax, dword ptr [ebp+8]
mov edx, dword ptr [eax+4]
and edx, 511
cmp edx, 7
jne .L_037E
sub esp, 8
push 114
push offset Lt_0120
call RTLPROCLOOKUP
add esp, 16
mov dword ptr [ebp-12], eax
jmp .L_037D
.L_037E:
sub esp, 8
push 70
push offset Lt_011F
call RTLPROCLOOKUP
add esp, 16
mov dword ptr [ebp-12], eax
.L_037D:
.L_0379:
sub esp, 8
push 0
push dword ptr [ebp-12]
call ASTNEWCALL
add esp, 16
mov dword ptr [ebp-8], eax
push -1
push -2147483648
push dword ptr [ebp+8]
push dword ptr [ebp-8]
call ASTNEWARG
add esp, 16
test eax, eax
jne .L_0380
jmp .L_036E
.L_0380:
.L_037F:
push -1
push -2147483648
push dword ptr [ebp+12]
push dword ptr [ebp-8]
call ASTNEWARG
add esp, 16
test eax, eax
jne .L_0382
jmp .L_036E
.L_0382:
.L_0381:
mov eax, dword ptr [ebp-8]
mov dword ptr [ebp-4], eax
.L_036E:
mov eax, dword ptr [ebp-4]
mov esp, ebp
pop ebp
.cfi_restore 5
.cfi_def_cfa 4, 4
ret
.size RTLSTRCASE, .-RTLSTRCASE
.cfi_endproc
.balign 16

.globl RTLSTRSWAP
RTLSTRSWAP:
.type RTLSTRSWAP, @function
.cfi_startproc
push ebp
.cfi_def_cfa_offset 8
.cfi_offset 5, -8
mov ebp, esp
.cfi_def_cfa_register 5
sub esp, 36
push ebx
mov dword ptr [ebp-4], 0
.L_0384:
mov dword ptr [ebp-4], 0
sub esp, 8
push 0
sub esp, 12
push 71
push offset Lt_00B6
call RTLPROCLOOKUP
add esp, 20
push eax
call ASTNEWCALL
add esp, 16
mov dword ptr [ebp-8], eax
mov eax, dword ptr [ebp+8]
mov ebx, dword ptr [eax+4]
and ebx, 511
mov dword ptr [ebp-12], ebx
sub esp, 8
push dword ptr [ebp-12]
push dword ptr [ebp+8]
call RTLCALCSTRLEN
add esp, 16
mov dword ptr [ebp-20], eax
mov dword ptr [ebp-16], edx
mov eax, dword ptr [ebp+12]
mov edx, dword ptr [eax+4]
and edx, 511
mov dword ptr [ebp-24], edx
sub esp, 8
push dword ptr [ebp-24]
push dword ptr [ebp+12]
call RTLCALCSTRLEN
add esp, 16
mov dword ptr [ebp-32], eax
mov dword ptr [ebp-28], edx
push -1
push 17
push dword ptr [ebp+8]
push dword ptr [ebp-8]
call ASTNEWARG
add esp, 16
test eax, eax
jne .L_0387
jmp .L_0385
.L_0387:
.L_0386:
push -1
push -2147483648
sub esp, 8
push 0
push 8
push dword ptr [ebp-16]
push dword ptr [ebp-20]
call ASTNEWCONSTI
add esp, 24
push eax
push dword ptr [ebp-8]
call ASTNEWARG
add esp, 16
test eax, eax
jne .L_0389
jmp .L_0385
.L_0389:
.L_0388:
push -1
push -2147483648
sub esp, 8
push 0
push 8
mov eax, dword ptr [ebp-12]
cmp eax, 18
sete al
shr eax, 1
sbb eax, eax
mov ebx, eax
mov edx, ebx
sar edx, 31
push edx
push ebx
call ASTNEWCONSTI
add esp, 24
push eax
push dword ptr [ebp-8]
call ASTNEWARG
add esp, 16
test eax, eax
jne .L_038B
jmp .L_0385
.L_038B:
.L_038A:
push -1
push 17
push dword ptr [ebp+12]
push dword ptr [ebp-8]
call ASTNEWARG
add esp, 16
test eax, eax
jne .L_038D
jmp .L_0385
.L_038D:
.L_038C:
push -1
push -2147483648
sub esp, 8
push 0
push 8
push dword ptr [ebp-28]
push dword ptr [ebp-32]
call ASTNEWCONSTI
add esp, 24
push eax
push dword ptr [ebp-8]
call ASTNEWARG
add esp, 16
test eax, eax
jne .L_038F
jmp .L_0385
.L_038F:
.L_038E:
push -1
push -2147483648
sub esp, 8
push 0
push 8
mov eax, dword ptr [ebp-24]
cmp eax, 18
sete al
shr eax, 1
sbb eax, eax
mov edx, eax
mov ebx, edx
sar ebx, 31
push ebx
push edx
call ASTNEWCONSTI
add esp, 24
push eax
push dword ptr [ebp-8]
call ASTNEWARG
add esp, 16
test eax, eax
jne .L_0391
jmp .L_0385
.L_0391:
.L_0390:
sub esp, 12
push dword ptr [ebp-8]
call ASTADD
add esp, 16
mov dword ptr [ebp-4], -1
.L_0385:
mov eax, dword ptr [ebp-4]
pop ebx
mov esp, ebp
pop ebp
.cfi_restore 5
.cfi_def_cfa 4, 4
ret
.size RTLSTRSWAP, .-RTLSTRSWAP
.cfi_endproc
.balign 16

.globl RTLWSTRSWAP
RTLWSTRSWAP:
.type RTLWSTRSWAP, @function
.cfi_startproc
push ebp
.cfi_def_cfa_offset 8
.cfi_offset 5, -8
mov ebp, esp
.cfi_def_cfa_register 5
sub esp, 20
push ebx
mov dword ptr [ebp-4], 0
.L_0394:
mov dword ptr [ebp-4], 0
sub esp, 8
push 0
sub esp, 12
push 115
push offset Lt_00B7
call RTLPROCLOOKUP
add esp, 20
push eax
call ASTNEWCALL
add esp, 16
mov dword ptr [ebp-8], eax
sub esp, 8
mov eax, dword ptr [ebp+8]
mov ebx, dword ptr [eax+4]
and ebx, 511
push ebx
push dword ptr [ebp+8]
call RTLCALCSTRLEN
add esp, 16
mov dword ptr [ebp-16], eax
mov dword ptr [ebp-12], edx
push -1
push -2147483648
push dword ptr [ebp+8]
push dword ptr [ebp-8]
call ASTNEWARG
add esp, 16
test eax, eax
jne .L_0397
jmp .L_0395
.L_0397:
.L_0396:
push -1
push -2147483648
sub esp, 8
push 0
push 8
push dword ptr [ebp-12]
push dword ptr [ebp-16]
call ASTNEWCONSTI
add esp, 24
push eax
push dword ptr [ebp-8]
call ASTNEWARG
add esp, 16
test eax, eax
jne .L_0399
jmp .L_0395
.L_0399:
.L_0398:
sub esp, 8
mov eax, dword ptr [ebp+12]
mov edx, dword ptr [eax+4]
and edx, 511
push edx
push dword ptr [ebp+12]
call RTLCALCSTRLEN
add esp, 16
mov dword ptr [ebp-16], eax
mov dword ptr [ebp-12], edx
push -1
push -2147483648
push dword ptr [ebp+12]
push dword ptr [ebp-8]
call ASTNEWARG
add esp, 16
test eax, eax
jne .L_039B
jmp .L_0395
.L_039B:
.L_039A:
push -1
push -2147483648
sub esp, 8
push 0
push 8
push dword ptr [ebp-12]
push dword ptr [ebp-16]
call ASTNEWCONSTI
add esp, 24
push eax
push dword ptr [ebp-8]
call ASTNEWARG
add esp, 16
test eax, eax
jne .L_039D
jmp .L_0395
.L_039D:
.L_039C:
sub esp, 12
push dword ptr [ebp-8]
call ASTADD
add esp, 16
mov dword ptr [ebp-4], -1
.L_0395:
mov eax, dword ptr [ebp-4]
pop ebx
mov esp, ebp
pop ebp
.cfi_restore 5
.cfi_def_cfa 4, 4
ret
.size RTLWSTRSWAP, .-RTLWSTRSWAP
.cfi_endproc
.balign 16
fb_ctor__rtlzstring:
.type fb_ctor__rtlzstring, @function
.cfi_startproc
push ebp
.cfi_def_cfa_offset 8
.cfi_offset 5, -8
mov ebp, esp
.cfi_def_cfa_register 5
sub esp, 8
.L_0002:
.L_0003:
mov esp, ebp
pop ebp
.cfi_restore 5
.cfi_def_cfa 4, 4
ret
.size fb_ctor__rtlzstring, .-fb_ctor__rtlzstring
.cfi_endproc
.balign 16
_ZN11TSTRSETITEMaSERKS_:
.type _ZN11TSTRSETITEMaSERKS_, @function
.cfi_startproc
push ebp
.cfi_def_cfa_offset 8
.cfi_offset 5, -8
mov ebp, esp
.cfi_def_cfa_register 5
sub esp, 4
push ebx
.L_0012:
sub esp, 12
push 0
push -1
mov eax, dword ptr [ebp+12]
lea ebx, [eax]
push ebx
push -1
mov ebx, dword ptr [ebp+8]
lea eax, [ebx]
push eax
call fb_StrAssign
add esp, 32
mov eax, dword ptr [ebp+12]
add eax, 12
mov ebx, dword ptr [ebp+8]
add ebx, 12
mov ecx, dword ptr [eax]
mov dword ptr [ebx], ecx
mov ecx, dword ptr [ebp+12]
add ecx, 16
mov ebx, dword ptr [ebp+8]
add ebx, 16
mov eax, dword ptr [ecx]
mov dword ptr [ebx], eax
.L_0013:
pop ebx
mov esp, ebp
pop ebp
.cfi_restore 5
.cfi_def_cfa 4, 4
ret
.size _ZN11TSTRSETITEMaSERKS_, .-_ZN11TSTRSETITEMaSERKS_
.cfi_endproc
.balign 16
HEVALASCCASE:
.type HEVALASCCASE, @function
.cfi_startproc
push ebp
.cfi_def_cfa_offset 8
.cfi_offset 5, -8
mov ebp, esp
.cfi_def_cfa_register 5
sub esp, 52
push ebx
mov dword ptr [ebp-4], 0
.L_034F:
mov dword ptr [ebp-4], 0
cmp dword ptr [ebp+12], 0
je .L_0352
mov dword ptr [ebp-28], 65
mov dword ptr [ebp-32], 90
mov dword ptr [ebp-36], 32
jmp .L_0351
.L_0352:
mov dword ptr [ebp-28], 97
mov dword ptr [ebp-32], 122
mov dword ptr [ebp-36], -32
.L_0351:
mov eax, dword ptr [ebp+8]
mov ebx, dword ptr [eax+28]
and ebx, 511
cmp ebx, 7
jne .L_0358
mov ebx, dword ptr [ebp+8]
mov eax, dword ptr [ebx+56]
mov dword ptr [ebp-8], eax
sub esp, 12
push dword ptr [ebp-8]
call fb_WstrLen
add esp, 16
mov dword ptr [ebp-20], eax
sub esp, 8
mov dword ptr [ebp-40], 0
lea eax, [ebp-40]
push eax
push dword ptr [ebp-8]
call HUNESCAPEW
add esp, 16
mov dword ptr [ebp-8], eax
mov ebx, dword ptr [SYMB_DTYPETB+200]
mov eax, ebx
sar eax, 31
push eax
push ebx
mov ebx, dword ptr [ebp+8]
push dword ptr [ebx+44]
push dword ptr [ebx+40]
call __divdi3
add esp, 16
add eax, 4294967295
adc edx, 4294967295
mov ebx, eax
mov dword ptr [ebp-16], ebx
mov ebx, dword ptr [ebp-16]
cmp dword ptr [ebp-20], ebx
je .L_035B
jmp .L_0350
.L_035B:
.L_035A:
mov dword ptr [ebp-44], 0
mov ebx, dword ptr [ebp-16]
dec ebx
mov dword ptr [ebp-48], ebx
jmp .L_035D
.L_0360:
mov ebx, dword ptr [ebp-44]
sal ebx, 2
mov eax, dword ptr [ebp-8]
add eax, ebx
mov ebx, dword ptr [eax]
mov dword ptr [ebp-24], ebx
mov ebx, dword ptr [ebp-24]
cmp ebx, dword ptr [ebp-28]
setge bl
shr ebx, 1
sbb ebx, ebx
mov eax, dword ptr [ebp-24]
cmp eax, dword ptr [ebp-32]
setle al
shr eax, 1
sbb eax, eax
and ebx, eax
je .L_0362
mov eax, dword ptr [ebp-36]
add dword ptr [ebp-24], eax
.L_0362:
.L_0361:
mov eax, dword ptr [ebp-44]
sal eax, 2
mov ebx, dword ptr [ebp-8]
add ebx, eax
mov eax, dword ptr [ebp-24]
mov dword ptr [ebx], eax
.L_035E:
inc dword ptr [ebp-44]
.L_035D:
mov eax, dword ptr [ebp-48]
cmp dword ptr [ebp-44], eax
jle .L_0360
.L_035F:
sub esp, 8
push dword ptr [ebp-16]
push dword ptr [ebp-8]
call SYMBALLOCWSTRCONST
add esp, 16
mov dword ptr [ebp-4], eax
jmp .L_0357
.L_0358:
mov eax, dword ptr [ebp+8]
mov ebx, dword ptr [eax+56]
mov dword ptr [ebp-12], ebx
sub esp, 8
push 0
push dword ptr [ebp-12]
call fb_StrLen
add esp, 16
mov dword ptr [ebp-20], eax
sub esp, 8
mov dword ptr [ebp-40], 0
lea eax, [ebp-40]
push eax
push dword ptr [ebp-12]
call HUNESCAPE
add esp, 16
mov dword ptr [ebp-12], eax
mov eax, dword ptr [ebp+8]
mov edx, dword ptr [eax+40]
mov ebx, dword ptr [eax+44]
add edx, 4294967295
adc ebx, 4294967295
mov eax, edx
mov dword ptr [ebp-16], eax
mov eax, dword ptr [ebp-16]
cmp dword ptr [ebp-20], eax
je .L_0365
jmp .L_0350
.L_0365:
.L_0364:
mov dword ptr [ebp-44], 0
mov eax, dword ptr [ebp-16]
dec eax
mov dword ptr [ebp-48], eax
jmp .L_0367
.L_036A:
mov eax, dword ptr [ebp-12]
add eax, dword ptr [ebp-44]
movzx edx, byte ptr [eax]
mov dword ptr [ebp-24], edx
mov edx, dword ptr [ebp-24]
cmp edx, dword ptr [ebp-28]
setge dl
shr edx, 1
sbb edx, edx
mov eax, dword ptr [ebp-24]
cmp eax, dword ptr [ebp-32]
setle al
shr eax, 1
sbb eax, eax
and edx, eax
je .L_036C
mov eax, dword ptr [ebp-36]
add dword ptr [ebp-24], eax
.L_036C:
.L_036B:
mov al, byte ptr [ebp-24]
mov edx, dword ptr [ebp-12]
add edx, dword ptr [ebp-44]
mov byte ptr [edx], al
.L_0368:
inc dword ptr [ebp-44]
.L_0367:
mov eax, dword ptr [ebp-48]
cmp dword ptr [ebp-44], eax
jle .L_036A
.L_0369:
sub esp, 8
push dword ptr [ebp-16]
push dword ptr [ebp-12]
call SYMBALLOCSTRCONST
add esp, 16
mov dword ptr [ebp-4], eax
.L_0357:
.L_0350:
mov eax, dword ptr [ebp-4]
pop ebx
mov esp, ebp
pop ebp
.cfi_restore 5
.cfi_def_cfa 4, 4
ret
.size HEVALASCCASE, .-HEVALASCCASE
.cfi_endproc

.section .bss
.balign 4
	.lcomm	Lt_0059,36
.balign 4
	.lcomm	Lt_005A,36
.balign 4
	.lcomm	Lt_005B,48

.section .data
.balign 4
FUNCDATA:
.int Lt_005D
.long 0
.int 17
.int -1
.long 0
.int 0
.int 5
.int 0
.int 2
.int 0
.skip 4,0
.int 520
.int 1
.int 0
.skip 4,0
.int 512
.int 2
.int 0
.skip 4,0
.int 520
.int 1
.int 0
.skip 4,0
.int 523
.int 1
.int -1
.int 1
.skip 176,0
.int Lt_005E
.long 0
.int 17
.int -1
.long 0
.int 0
.int 4
.int 0
.int 2
.int 0
.skip 4,0
.int 520
.int 1
.int 0
.skip 4,0
.int 1063
.int 1
.int 0
.skip 4,0
.int 520
.int 1
.int 0
.skip 4,0
.skip 192,0
.int Lt_005F
.long 0
.int 17
.int -1
.long 0
.int 0
.int 5
.int 0
.int 2
.int 0
.skip 4,0
.int 520
.int 1
.int 0
.skip 4,0
.int 512
.int 2
.int 0
.skip 4,0
.int 520
.int 1
.int 0
.skip 4,0
.int 523
.int 1
.int -1
.int 1
.skip 176,0
.int Lt_0060
.long 0
.int 39
.int -1
.long 0
.int 0
.int 3
.int 39
.int 1
.int 0
.skip 4,0
.int 520
.int 1
.int 0
.skip 4,0
.int 1063
.int 1
.int 0
.skip 4,0
.skip 208,0
.int Lt_0061
.long 0
.int 39
.int -1
.long 0
.int 0
.int 4
.int 39
.int 1
.int 0
.skip 4,0
.int 520
.int 1
.int 0
.skip 4,0
.int 512
.int 2
.int 0
.skip 4,0
.int 520
.int 1
.int 0
.skip 4,0
.skip 192,0
.int Lt_0062
.long 0
.int 17
.int -1
.long 0
.int 0
.int 4
.int 0
.int 2
.int 0
.skip 4,0
.int 520
.int 1
.int 0
.skip 4,0
.int 1063
.int 1
.int 0
.skip 4,0
.int 523
.int 1
.int 0
.skip 4,0
.skip 192,0
.int Lt_0063
.long 0
.int 0
.int -1
.long 0
.int 0
.int 1
.int 529
.int 2
.int 0
.skip 4,0
.skip 240,0
.int Lt_0064
.long 0
.int 11
.int -1
.long 0
.int 0
.int 1
.int 529
.int 2
.int 0
.skip 4,0
.skip 240,0
.int Lt_0065
.long 0
.int 0
.int -1
.long 0
.int 0
.int 1
.int 1063
.int 1
.int 0
.skip 4,0
.skip 240,0
.int Lt_0066
.long 0
.int 17
.int -1
.long 0
.int 0
.int 5
.int 17
.int 2
.int 0
.skip 4,0
.int 512
.int 2
.int 0
.skip 4,0
.int 520
.int 1
.int 0
.skip 4,0
.int 512
.int 2
.int 0
.skip 4,0
.int 520
.int 1
.int 0
.skip 4,0
.skip 176,0
.int Lt_0067
.long 0
.int 17
.int -1
.long 0
.int 0
.int 5
.int 0
.int 2
.int 0
.skip 4,0
.int 520
.int 1
.int 0
.skip 4,0
.int 512
.int 2
.int 0
.skip 4,0
.int 520
.int 1
.int 0
.skip 4,0
.int 523
.int 1
.int -1
.int 1
.skip 176,0
.int Lt_0068
.long 0
.int 7
.int -1
.long 0
.int 0
.int 2
.int 1063
.int 1
.int 0
.skip 4,0
.int 1063
.int 1
.int 0
.skip 4,0
.skip 224,0
.int Lt_0069
.long 0
.int 7
.int -1
.long 0
.int 0
.int 3
.int 1063
.int 1
.int 0
.skip 4,0
.int 512
.int 2
.int 0
.skip 4,0
.int 520
.int 1
.int 0
.skip 4,0
.skip 208,0
.int Lt_006A
.long 0
.int 7
.int -1
.long 0
.int 0
.int 3
.int 512
.int 2
.int 0
.skip 4,0
.int 520
.int 1
.int 0
.skip 4,0
.int 1063
.int 1
.int 0
.skip 4,0
.skip 208,0
.int Lt_006B
.long 0
.int 11
.int -1
.long 0
.int 0
.int 4
.int 512
.int 2
.int 0
.skip 4,0
.int 520
.int 1
.int 0
.skip 4,0
.int 512
.int 2
.int 0
.skip 4,0
.int 520
.int 1
.int 0
.skip 4,0
.skip 192,0
.int Lt_006C
.long 0
.int 11
.int -1
.long 0
.int 0
.int 2
.int 1063
.int 1
.int 0
.skip 4,0
.int 1063
.int 1
.int 0
.skip 4,0
.skip 224,0
.int Lt_006D
.long 0
.int 17
.int -1
.long 0
.int 0
.int 5
.int 0
.int 2
.int 0
.skip 4,0
.int 520
.int 1
.int 0
.skip 4,0
.int 512
.int 2
.int 0
.skip 4,0
.int 520
.int 1
.int 0
.skip 4,0
.int 523
.int 1
.int -1
.int 1
.skip 176,0
.int Lt_006E
.long 0
.int 39
.int -1
.long 0
.int 0
.int 3
.int 39
.int 1
.int 0
.skip 4,0
.int 520
.int 1
.int 0
.skip 4,0
.int 1063
.int 1
.int 0
.skip 4,0
.skip 208,0
.int Lt_006F
.long 0
.int 17
.int -1
.long 0
.int 0
.int 1
.int 529
.int 2
.int 0
.skip 4,0
.skip 240,0
.int Lt_0070
.long 0
.int 17
.int -1
.long 0
.int 0
.int 2
.int 512
.int 2
.int 0
.skip 4,0
.int 520
.int 1
.int 0
.skip 4,0
.skip 224,0
.int Lt_0071
.long 0
.int 17
.int -1
.long 0
.int 0
.int 1
.int 1060
.int 1
.int 0
.skip 4,0
.skip 240,0
.int Lt_0072
.long 0
.int 17
.int -1
.long 0
.int 0
.int 2
.int 1060
.int 1
.int 0
.skip 4,0
.int 520
.int 1
.int 0
.skip 4,0
.skip 224,0
.int Lt_0073
.long 0
.int 39
.int -1
.long 0
.int 0
.int 1
.int 520
.int 1
.int 0
.skip 4,0
.skip 240,0
.int Lt_0074
.long 0
.int 17
.int -1
.long 0
.int 128
.int 1
.int 513
.int 1
.int 0
.skip 4,0
.skip 240,0
.int Lt_0075
.long 0
.int 17
.int -1
.long 0
.int 0
.int 1
.int 523
.int 1
.int 0
.skip 4,0
.skip 240,0
.int Lt_0076
.long 0
.int 17
.int -1
.long 0
.int 256
.int 1
.int 523
.int 1
.int 0
.skip 4,0
.skip 240,0
.int Lt_0077
.long 0
.int 7
.int -1
.long 0
.int 0
.int 1
.int 513
.int 1
.int 0
.skip 4,0
.skip 240,0
.int Lt_0078
.long 0
.int 7
.int -1
.long 0
.int 0
.int 1
.int 523
.int 1
.int 0
.skip 4,0
.skip 240,0
.int Lt_0079
.long 0
.int 17
.int -1
.long 0
.int 0
.int 1
.int 524
.int 1
.int 0
.skip 4,0
.skip 240,0
.int Lt_007A
.long 0
.int 17
.int -1
.long 0
.int 256
.int 1
.int 524
.int 1
.int 0
.skip 4,0
.skip 240,0
.int Lt_007B
.long 0
.int 7
.int -1
.long 0
.int 0
.int 1
.int 524
.int 1
.int 0
.skip 4,0
.skip 240,0
.int Lt_007C
.long 0
.int 17
.int -1
.long 0
.int 0
.int 1
.int 525
.int 1
.int 0
.skip 4,0
.skip 240,0
.int Lt_007D
.long 0
.int 17
.int -1
.long 0
.int 256
.int 1
.int 525
.int 1
.int 0
.skip 4,0
.skip 240,0
.int Lt_007E
.long 0
.int 7
.int -1
.long 0
.int 0
.int 1
.int 525
.int 1
.int 0
.skip 4,0
.skip 240,0
.int Lt_007F
.long 0
.int 17
.int -1
.long 0
.int 0
.int 1
.int 526
.int 1
.int 0
.skip 4,0
.skip 240,0
.int Lt_0080
.long 0
.int 17
.int -1
.long 0
.int 256
.int 1
.int 526
.int 1
.int 0
.skip 4,0
.skip 240,0
.int Lt_0081
.long 0
.int 7
.int -1
.long 0
.int 0
.int 1
.int 526
.int 1
.int 0
.skip 4,0
.skip 240,0
.int Lt_0082
.long 0
.int 17
.int -1
.long 0
.int 0
.int 1
.int 527
.int 1
.int 0
.skip 4,0
.skip 240,0
.int Lt_0083
.long 0
.int 17
.int -1
.long 0
.int 256
.int 1
.int 527
.int 1
.int 0
.skip 4,0
.skip 240,0
.int Lt_0084
.long 0
.int 7
.int -1
.long 0
.int 0
.int 1
.int 527
.int 1
.int 0
.skip 4,0
.skip 240,0
.int Lt_0085
.long 0
.int 17
.int -1
.long 0
.int 0
.int 1
.int 528
.int 1
.int 0
.skip 4,0
.skip 240,0
.int Lt_0086
.long 0
.int 17
.int -1
.long 0
.int 256
.int 1
.int 528
.int 1
.int 0
.skip 4,0
.skip 240,0
.int Lt_0087
.long 0
.int 7
.int -1
.long 0
.int 0
.int 1
.int 528
.int 1
.int 0
.skip 4,0
.skip 240,0
.int Lt_0088
.long 0
.int 17
.int -1
.long 0
.int 0
.int 1
.int 1063
.int 1
.int 0
.skip 4,0
.skip 240,0
.int Lt_0089
.long 0
.int 7
.int -1
.long 0
.int 0
.int 1
.int 1060
.int 1
.int 0
.skip 4,0
.skip 240,0
.int Lt_008A
.long 0
.int 17
.int -1
.long 0
.int 0
.int 3
.int 529
.int 2
.int 0
.skip 4,0
.int 520
.int 1
.int 0
.skip 4,0
.int 520
.int 1
.int 0
.skip 4,0
.skip 208,0
.int Lt_008B
.long 0
.int 7
.int -1
.long 0
.int 0
.int 3
.int 1063
.int 1
.int 0
.skip 4,0
.int 520
.int 1
.int 0
.skip 4,0
.int 520
.int 1
.int 0
.skip 4,0
.skip 208,0
.int Lt_008C
.long 0
.int 0
.int -1
.long 0
.int 0
.int 4
.int 17
.int 2
.int 0
.skip 4,0
.int 520
.int 1
.int 0
.skip 4,0
.int 520
.int 1
.int 0
.skip 4,0
.int 529
.int 2
.int 0
.skip 4,0
.skip 192,0
.int Lt_008D
.long 0
.int 0
.int -1
.long 0
.int 0
.int 5
.int 39
.int 1
.int 0
.skip 4,0
.int 520
.int 1
.int 0
.skip 4,0
.int 520
.int 1
.int 0
.skip 4,0
.int 520
.int 1
.int 0
.skip 4,0
.int 1063
.int 1
.int 0
.skip 4,0
.skip 176,0
.int Lt_008E
.long 0
.int 17
.int -1
.long 0
.int 0
.int 2
.int 520
.int 1
.int 0
.skip 4,0
.int 523
.int 1
.int 0
.skip 4,0
.skip 224,0
.int Lt_008F
.long 0
.int 7
.int -1
.long 0
.int 0
.int 2
.int 520
.int 1
.int 0
.skip 4,0
.int 523
.int 1
.int 0
.skip 4,0
.skip 224,0
.int Lt_0090
.long 0
.int 17
.int -1
.long 0
.int 0
.int 2
.int 520
.int 1
.int 0
.skip 4,0
.int 529
.int 2
.int 0
.skip 4,0
.skip 224,0
.int Lt_0091
.long 0
.int 7
.int -1
.long 0
.int 0
.int 2
.int 520
.int 1
.int 0
.skip 4,0
.int 1063
.int 1
.int 0
.skip 4,0
.skip 224,0
.int Lt_0092
.long 0
.int 8
.int -1
.long 0
.int 0
.int 2
.int 512
.int 2
.int 0
.skip 4,0
.int 520
.int 1
.int 0
.skip 4,0
.skip 224,0
.int Lt_0093
.long 0
.int 8
.int -1
.long 0
.int 0
.int 1
.int 1063
.int 1
.int 0
.skip 4,0
.skip 240,0
.int Lt_0094
.long 0
.int 0
.int -1
.long 0
.int 0
.int 2
.int 17
.int 2
.int 0
.skip 4,0
.int 529
.int 2
.int 0
.skip 4,0
.skip 224,0
.int Lt_0095
.long 0
.int 0
.int -1
.long 0
.int 0
.int 2
.int 39
.int 1
.int 0
.skip 4,0
.int 1063
.int 1
.int 0
.skip 4,0
.skip 224,0
.int Lt_0096
.long 0
.int 0
.int -1
.long 0
.int 1
.int 2
.int 17
.int 2
.int 0
.skip 4,0
.int 529
.int 2
.int 0
.skip 4,0
.skip 224,0
.int Lt_0097
.long 0
.int 0
.int -1
.long 0
.int 129
.int 2
.int 39
.int 1
.int 0
.skip 4,0
.int 1063
.int 1
.int 0
.skip 4,0
.skip 224,0
.int Lt_0098
.long 0
.int 12
.int -1
.long 0
.int 0
.int 2
.int 529
.int 2
.int 0
.skip 4,0
.int 520
.int 1
.int -1
.int 0
.skip 224,0
.int Lt_0099
.long 0
.int 12
.int -1
.long 0
.int 0
.int 2
.int 1063
.int 1
.int 0
.skip 4,0
.int 520
.int 1
.int -1
.int 0
.skip 224,0
.int Lt_009A
.long 0
.int 17
.int 3
.long 0
.int 0
.int 2
.int 523
.int 1
.int 0
.skip 4,0
.int -2147483648
.int 4
.int 0
.skip 4,0
.skip 224,0
.int Lt_009B
.long 0
.int 7
.int 3
.long 0
.int 0
.int 2
.int 523
.int 1
.int 0
.skip 4,0
.int -2147483648
.int 4
.int 0
.skip 4,0
.skip 224,0
.int Lt_009C
.long 0
.int 8
.int -1
.long 0
.int 0
.int 3
.int 520
.int 1
.int 0
.skip 4,0
.int 529
.int 2
.int 0
.skip 4,0
.int 529
.int 2
.int 0
.skip 4,0
.skip 208,0
.int Lt_009D
.long 0
.int 8
.int -1
.long 0
.int 0
.int 3
.int 520
.int 1
.int 0
.skip 4,0
.int 1063
.int 1
.int 0
.skip 4,0
.int 1063
.int 1
.int 0
.skip 4,0
.skip 208,0
.int Lt_009E
.long 0
.int 8
.int -1
.long 0
.int 0
.int 3
.int 520
.int 1
.int 0
.skip 4,0
.int 529
.int 2
.int 0
.skip 4,0
.int 529
.int 2
.int 0
.skip 4,0
.skip 208,0
.int Lt_009F
.long 0
.int 8
.int -1
.long 0
.int 0
.int 3
.int 520
.int 1
.int 0
.skip 4,0
.int 1063
.int 1
.int 0
.skip 4,0
.int 1063
.int 1
.int 0
.skip 4,0
.skip 208,0
.int Lt_00A0
.long 0
.int 8
.int -1
.long 0
.int 0
.int 3
.int 529
.int 2
.int 0
.skip 4,0
.int 529
.int 2
.int 0
.skip 4,0
.int 520
.int 1
.int 0
.skip 4,0
.skip 208,0
.int Lt_00A1
.long 0
.int 8
.int -1
.long 0
.int 0
.int 3
.int 1063
.int 1
.int 0
.skip 4,0
.int 1063
.int 1
.int 0
.skip 4,0
.int 520
.int 1
.int 0
.skip 4,0
.skip 208,0
.int Lt_00A2
.long 0
.int 8
.int -1
.long 0
.int 0
.int 3
.int 529
.int 2
.int 0
.skip 4,0
.int 529
.int 2
.int 0
.skip 4,0
.int 520
.int 1
.int 0
.skip 4,0
.skip 208,0
.int Lt_00A3
.long 0
.int 8
.int -1
.long 0
.int 0
.int 3
.int 1063
.int 1
.int 0
.skip 4,0
.int 1063
.int 1
.int 0
.skip 4,0
.int 520
.int 1
.int 0
.skip 4,0
.skip 208,0
.int Lt_00A4
.long 0
.int 17
.int -1
.long 0
.int 0
.int 1
.int 529
.int 2
.int 0
.skip 4,0
.skip 240,0
.int Lt_00A5
.long 0
.int 7
.int -1
.long 0
.int 0
.int 1
.int 1063
.int 1
.int 0
.skip 4,0
.skip 240,0
.int Lt_00A6
.long 0
.int 17
.int -1
.long 0
.int 0
.int 2
.int 529
.int 2
.int 0
.skip 4,0
.int 529
.int 2
.int 0
.skip 4,0
.skip 224,0
.int Lt_00A7
.long 0
.int 7
.int -1
.long 0
.int 0
.int 2
.int 1063
.int 1
.int 0
.skip 4,0
.int 1063
.int 1
.int 0
.skip 4,0
.skip 224,0
.int Lt_00A8
.long 0
.int 17
.int -1
.long 0
.int 0
.int 2
.int 529
.int 2
.int 0
.skip 4,0
.int 529
.int 2
.int 0
.skip 4,0
.skip 224,0
.int Lt_00A9
.long 0
.int 7
.int -1
.long 0
.int 0
.int 2
.int 1063
.int 1
.int 0
.skip 4,0
.int 1063
.int 1
.int 0
.skip 4,0
.skip 224,0
.int Lt_00AA
.long 0
.int 17
.int -1
.long 0
.int 0
.int 1
.int 529
.int 2
.int 0
.skip 4,0
.skip 240,0
.int Lt_00AB
.long 0
.int 7
.int -1
.long 0
.int 0
.int 1
.int 1063
.int 1
.int 0
.skip 4,0
.skip 240,0
.int Lt_00AC
.long 0
.int 17
.int -1
.long 0
.int 0
.int 2
.int 529
.int 2
.int 0
.skip 4,0
.int 529
.int 2
.int 0
.skip 4,0
.skip 224,0
.int Lt_00AD
.long 0
.int 7
.int -1
.long 0
.int 0
.int 2
.int 1063
.int 1
.int 0
.skip 4,0
.int 1063
.int 1
.int 0
.skip 4,0
.skip 224,0
.int Lt_00AE
.long 0
.int 17
.int -1
.long 0
.int 0
.int 2
.int 529
.int 2
.int 0
.skip 4,0
.int 529
.int 2
.int 0
.skip 4,0
.skip 224,0
.int Lt_00AF
.long 0
.int 7
.int -1
.long 0
.int 0
.int 2
.int 1063
.int 1
.int 0
.skip 4,0
.int 1063
.int 1
.int 0
.skip 4,0
.skip 224,0
.int Lt_00B0
.long 0
.int 17
.int -1
.long 0
.int 0
.int 1
.int 529
.int 2
.int 0
.skip 4,0
.skip 240,0
.int Lt_00B1
.long 0
.int 7
.int -1
.long 0
.int 0
.int 1
.int 1063
.int 1
.int 0
.skip 4,0
.skip 240,0
.int Lt_00B2
.long 0
.int 17
.int -1
.long 0
.int 0
.int 2
.int 529
.int 2
.int 0
.skip 4,0
.int 529
.int 2
.int 0
.skip 4,0
.skip 224,0
.int Lt_00B3
.long 0
.int 7
.int -1
.long 0
.int 0
.int 2
.int 1063
.int 1
.int 0
.skip 4,0
.int 1063
.int 1
.int 0
.skip 4,0
.skip 224,0
.int Lt_00B4
.long 0
.int 17
.int -1
.long 0
.int 0
.int 2
.int 529
.int 2
.int 0
.skip 4,0
.int 529
.int 2
.int 0
.skip 4,0
.skip 224,0
.int Lt_00B5
.long 0
.int 7
.int -1
.long 0
.int 0
.int 2
.int 1063
.int 1
.int 0
.skip 4,0
.int 1063
.int 1
.int 0
.skip 4,0
.skip 224,0
.int Lt_00B6
.long 0
.int 0
.int -1
.long 0
.int 0
.int 6
.int 0
.int 2
.int 0
.skip 4,0
.int 520
.int 1
.int 0
.skip 4,0
.int 523
.int 1
.int 0
.skip 4,0
.int 0
.int 2
.int 0
.skip 4,0
.int 520
.int 1
.int 0
.skip 4,0
.int 523
.int 1
.int 0
.skip 4,0
.skip 160,0
.int Lt_00B7
.long 0
.int 0
.int -1
.long 0
.int 0
.int 4
.int 39
.int 1
.int 0
.skip 4,0
.int 520
.int 1
.int 0
.skip 4,0
.int 39
.int 1
.int 0
.skip 4,0
.int 520
.int 1
.int 0
.skip 4,0
.skip 192,0
.int Lt_00B8
.int Lt_00B9
.int 16
.int -1
.long 0
.int 1
.int 1
.int 529
.int 2
.int 0
.skip 4,0
.skip 240,0
.int Lt_00B8
.int Lt_00BA
.int 16
.int -1
.long 0
.int 129
.int 1
.int 519
.int 2
.int 0
.skip 4,0
.skip 240,0
.int Lt_00BB
.long 0
.int 1
.int -1
.long 0
.int 129
.int 1
.int 529
.int 2
.int 0
.skip 4,0
.skip 240,0
.int Lt_00BB
.int Lt_00BC
.int 1
.int -1
.long 0
.int 129
.int 1
.int 519
.int 2
.int 0
.skip 4,0
.skip 240,0
.int Lt_00BD
.int Lt_00BE
.int 11
.int -1
.long 0
.int 129
.int 1
.int 529
.int 2
.int 0
.skip 4,0
.skip 240,0
.int Lt_00BD
.int Lt_00BF
.int 11
.int -1
.long 0
.int 129
.int 1
.int 519
.int 2
.int 0
.skip 4,0
.skip 240,0
.int Lt_00C0
.int Lt_00C1
.int 12
.int -1
.long 0
.int 129
.int 1
.int 529
.int 2
.int 0
.skip 4,0
.skip 240,0
.int Lt_00C0
.int Lt_00C2
.int 12
.int -1
.long 0
.int 129
.int 1
.int 519
.int 2
.int 0
.skip 4,0
.skip 240,0
.int Lt_00C3
.int Lt_00C4
.int 13
.int -1
.long 0
.int 129
.int 1
.int 529
.int 2
.int 0
.skip 4,0
.skip 240,0
.int Lt_00C3
.int Lt_00C5
.int 13
.int -1
.long 0
.int 129
.int 1
.int 519
.int 2
.int 0
.skip 4,0
.skip 240,0
.int Lt_00C6
.int Lt_00C7
.int 14
.int -1
.long 0
.int 129
.int 1
.int 529
.int 2
.int 0
.skip 4,0
.skip 240,0
.int Lt_00C6
.int Lt_00C8
.int 14
.int -1
.long 0
.int 129
.int 1
.int 519
.int 2
.int 0
.skip 4,0
.skip 240,0
.int Lt_00C9
.int Lt_00CA
.int 17
.int -1
.long 0
.int 65
.int 1
.int 515
.int 1
.int 0
.skip 4,0
.skip 240,0
.int Lt_00C9
.int Lt_00CB
.int 17
.int -1
.long 0
.int 65
.int 1
.int 518
.int 1
.int 0
.skip 4,0
.skip 240,0
.int Lt_00C9
.int Lt_00CC
.int 17
.int -1
.long 0
.int 65
.int 1
.int 524
.int 1
.int 0
.skip 4,0
.skip 240,0
.int Lt_00C9
.int Lt_00CD
.int 17
.int -1
.long 0
.int 65
.int 1
.int 526
.int 1
.int 0
.skip 4,0
.skip 240,0
.int Lt_00C9
.int Lt_00CE
.int 17
.int -1
.long 0
.int 65
.int 1
.int 1056
.int 1
.int 0
.int 0
.skip 240,0
.int Lt_00C9
.int Lt_00CF
.int 17
.int -1
.long 0
.int 65
.int 2
.int 515
.int 1
.int 0
.skip 4,0
.int 523
.int 1
.int 0
.skip 4,0
.skip 224,0
.int Lt_00C9
.int Lt_00D0
.int 17
.int -1
.long 0
.int 65
.int 2
.int 518
.int 1
.int 0
.skip 4,0
.int 523
.int 1
.int 0
.skip 4,0
.skip 224,0
.int Lt_00C9
.int Lt_00D1
.int 17
.int -1
.long 0
.int 65
.int 2
.int 524
.int 1
.int 0
.skip 4,0
.int 523
.int 1
.int 0
.skip 4,0
.skip 224,0
.int Lt_00C9
.int Lt_00D2
.int 17
.int -1
.long 0
.int 65
.int 2
.int 526
.int 1
.int 0
.skip 4,0
.int 523
.int 1
.int 0
.skip 4,0
.skip 224,0
.int Lt_00C9
.int Lt_00D3
.int 17
.int -1
.long 0
.int 65
.int 2
.int 1056
.int 1
.int 0
.int 0
.int 523
.int 1
.int 0
.skip 4,0
.skip 224,0
.int Lt_00D4
.int Lt_00D5
.int 7
.int -1
.long 0
.int 129
.int 1
.int 515
.int 1
.int 0
.skip 4,0
.skip 240,0
.int Lt_00D4
.int Lt_00D6
.int 7
.int -1
.long 0
.int 129
.int 1
.int 518
.int 1
.int 0
.skip 4,0
.skip 240,0
.int Lt_00D4
.int Lt_00D7
.int 7
.int -1
.long 0
.int 129
.int 1
.int 524
.int 1
.int 0
.skip 4,0
.skip 240,0
.int Lt_00D4
.int Lt_00D8
.int 7
.int -1
.long 0
.int 129
.int 1
.int 526
.int 1
.int 0
.skip 4,0
.skip 240,0
.int Lt_00D4
.int Lt_00D9
.int 7
.int -1
.long 0
.int 129
.int 1
.int 1056
.int 1
.int 0
.int 0
.skip 240,0
.int Lt_00D4
.int Lt_00DA
.int 7
.int -1
.long 0
.int 129
.int 2
.int 515
.int 1
.int 0
.skip 4,0
.int 523
.int 1
.int 0
.skip 4,0
.skip 224,0
.int Lt_00D4
.int Lt_00DB
.int 7
.int -1
.long 0
.int 129
.int 2
.int 518
.int 1
.int 0
.skip 4,0
.int 523
.int 1
.int 0
.skip 4,0
.skip 224,0
.int Lt_00D4
.int Lt_00DC
.int 7
.int -1
.long 0
.int 129
.int 2
.int 524
.int 1
.int 0
.skip 4,0
.int 523
.int 1
.int 0
.skip 4,0
.skip 224,0
.int Lt_00D4
.int Lt_00DD
.int 7
.int -1
.long 0
.int 129
.int 2
.int 526
.int 1
.int 0
.skip 4,0
.int 523
.int 1
.int 0
.skip 4,0
.skip 224,0
.int Lt_00D4
.int Lt_00DE
.int 7
.int -1
.long 0
.int 129
.int 2
.int 1056
.int 1
.int 0
.int 0
.int 523
.int 1
.int 0
.skip 4,0
.skip 224,0
.int Lt_00DF
.int Lt_00E0
.int 17
.int -1
.long 0
.int 65
.int 1
.int 515
.int 1
.int 0
.skip 4,0
.skip 240,0
.int Lt_00DF
.int Lt_00E1
.int 17
.int -1
.long 0
.int 65
.int 1
.int 518
.int 1
.int 0
.skip 4,0
.skip 240,0
.int Lt_00DF
.int Lt_00E2
.int 17
.int -1
.long 0
.int 65
.int 1
.int 524
.int 1
.int 0
.skip 4,0
.skip 240,0
.int Lt_00DF
.int Lt_00E3
.int 17
.int -1
.long 0
.int 65
.int 1
.int 526
.int 1
.int 0
.skip 4,0
.skip 240,0
.int Lt_00DF
.int Lt_00E4
.int 17
.int -1
.long 0
.int 65
.int 1
.int 1056
.int 1
.int 0
.int 0
.skip 240,0
.int Lt_00DF
.int Lt_00E5
.int 17
.int -1
.long 0
.int 65
.int 2
.int 515
.int 1
.int 0
.skip 4,0
.int 523
.int 1
.int 0
.skip 4,0
.skip 224,0
.int Lt_00DF
.int Lt_00E6
.int 17
.int -1
.long 0
.int 65
.int 2
.int 518
.int 1
.int 0
.skip 4,0
.int 523
.int 1
.int 0
.skip 4,0
.skip 224,0
.int Lt_00DF
.int Lt_00E7
.int 17
.int -1
.long 0
.int 65
.int 2
.int 524
.int 1
.int 0
.skip 4,0
.int 523
.int 1
.int 0
.skip 4,0
.skip 224,0
.int Lt_00DF
.int Lt_00E8
.int 17
.int -1
.long 0
.int 65
.int 2
.int 526
.int 1
.int 0
.skip 4,0
.int 523
.int 1
.int 0
.skip 4,0
.skip 224,0
.int Lt_00DF
.int Lt_00E9
.int 17
.int -1
.long 0
.int 65
.int 2
.int 1056
.int 1
.int 0
.int 0
.int 523
.int 1
.int 0
.skip 4,0
.skip 224,0
.int Lt_00EA
.int Lt_00EB
.int 7
.int -1
.long 0
.int 129
.int 1
.int 515
.int 1
.int 0
.skip 4,0
.skip 240,0
.int Lt_00EA
.int Lt_00EC
.int 7
.int -1
.long 0
.int 129
.int 1
.int 518
.int 1
.int 0
.skip 4,0
.skip 240,0
.int Lt_00EA
.int Lt_00ED
.int 7
.int -1
.long 0
.int 129
.int 1
.int 524
.int 1
.int 0
.skip 4,0
.skip 240,0
.int Lt_00EA
.int Lt_00EE
.int 7
.int -1
.long 0
.int 129
.int 1
.int 526
.int 1
.int 0
.skip 4,0
.skip 240,0
.int Lt_00EA
.int Lt_00EF
.int 7
.int -1
.long 0
.int 129
.int 1
.int 1056
.int 1
.int 0
.int 0
.skip 240,0
.int Lt_00EA
.int Lt_00F0
.int 7
.int -1
.long 0
.int 129
.int 2
.int 515
.int 1
.int 0
.skip 4,0
.int 523
.int 1
.int 0
.skip 4,0
.skip 224,0
.int Lt_00EA
.int Lt_00F1
.int 7
.int -1
.long 0
.int 129
.int 2
.int 518
.int 1
.int 0
.skip 4,0
.int 523
.int 1
.int 0
.skip 4,0
.skip 224,0
.int Lt_00EA
.int Lt_00F2
.int 7
.int -1
.long 0
.int 129
.int 2
.int 524
.int 1
.int 0
.skip 4,0
.int 523
.int 1
.int 0
.skip 4,0
.skip 224,0
.int Lt_00EA
.int Lt_00F3
.int 7
.int -1
.long 0
.int 129
.int 2
.int 526
.int 1
.int 0
.skip 4,0
.int 523
.int 1
.int 0
.skip 4,0
.skip 224,0
.int Lt_00EA
.int Lt_00F4
.int 7
.int -1
.long 0
.int 129
.int 2
.int 1056
.int 1
.int 0
.int 0
.int 523
.int 1
.int 0
.skip 4,0
.skip 224,0
.int Lt_00F5
.int Lt_00F6
.int 17
.int -1
.long 0
.int 129
.int 1
.int 515
.int 1
.int 0
.skip 4,0
.skip 240,0
.int Lt_00F5
.int Lt_00F7
.int 17
.int -1
.long 0
.int 129
.int 1
.int 518
.int 1
.int 0
.skip 4,0
.skip 240,0
.int Lt_00F5
.int Lt_00F8
.int 17
.int -1
.long 0
.int 129
.int 1
.int 524
.int 1
.int 0
.skip 4,0
.skip 240,0
.int Lt_00F5
.int Lt_00F9
.int 17
.int -1
.long 0
.int 129
.int 1
.int 526
.int 1
.int 0
.skip 4,0
.skip 240,0
.int Lt_00F5
.int Lt_00FA
.int 17
.int -1
.long 0
.int 129
.int 1
.int 1056
.int 1
.int 0
.int 0
.skip 240,0
.int Lt_00F5
.int Lt_00FB
.int 17
.int -1
.long 0
.int 129
.int 2
.int 515
.int 1
.int 0
.skip 4,0
.int 523
.int 1
.int 0
.skip 4,0
.skip 224,0
.int Lt_00F5
.int Lt_00FC
.int 17
.int -1
.long 0
.int 129
.int 2
.int 518
.int 1
.int 0
.skip 4,0
.int 523
.int 1
.int 0
.skip 4,0
.skip 224,0
.int Lt_00F5
.int Lt_00FD
.int 17
.int -1
.long 0
.int 129
.int 2
.int 524
.int 1
.int 0
.skip 4,0
.int 523
.int 1
.int 0
.skip 4,0
.skip 224,0
.int Lt_00F5
.int Lt_00FE
.int 17
.int -1
.long 0
.int 129
.int 2
.int 526
.int 1
.int 0
.skip 4,0
.int 523
.int 1
.int 0
.skip 4,0
.skip 224,0
.int Lt_00F5
.int Lt_00FF
.int 17
.int -1
.long 0
.int 129
.int 2
.int 1056
.int 1
.int 0
.int 0
.int 523
.int 1
.int 0
.skip 4,0
.skip 224,0
.int Lt_0100
.int Lt_0101
.int 7
.int -1
.long 0
.int 129
.int 1
.int 515
.int 1
.int 0
.skip 4,0
.skip 240,0
.int Lt_0100
.int Lt_0102
.int 7
.int -1
.long 0
.int 129
.int 1
.int 518
.int 1
.int 0
.skip 4,0
.skip 240,0
.int Lt_0100
.int Lt_0103
.int 7
.int -1
.long 0
.int 129
.int 1
.int 524
.int 1
.int 0
.skip 4,0
.skip 240,0
.int Lt_0100
.int Lt_0104
.int 7
.int -1
.long 0
.int 129
.int 1
.int 526
.int 1
.int 0
.skip 4,0
.skip 240,0
.int Lt_0100
.int Lt_0105
.int 7
.int -1
.long 0
.int 129
.int 1
.int 1056
.int 1
.int 0
.int 0
.skip 240,0
.int Lt_0100
.int Lt_0106
.int 7
.int -1
.long 0
.int 129
.int 2
.int 515
.int 1
.int 0
.skip 4,0
.int 523
.int 1
.int 0
.skip 4,0
.skip 224,0
.int Lt_0100
.int Lt_0107
.int 7
.int -1
.long 0
.int 129
.int 2
.int 518
.int 1
.int 0
.skip 4,0
.int 523
.int 1
.int 0
.skip 4,0
.skip 224,0
.int Lt_0100
.int Lt_0108
.int 7
.int -1
.long 0
.int 129
.int 2
.int 524
.int 1
.int 0
.skip 4,0
.int 523
.int 1
.int 0
.skip 4,0
.skip 224,0
.int Lt_0100
.int Lt_0109
.int 7
.int -1
.long 0
.int 129
.int 2
.int 526
.int 1
.int 0
.skip 4,0
.int 523
.int 1
.int 0
.skip 4,0
.skip 224,0
.int Lt_0100
.int Lt_010A
.int 7
.int -1
.long 0
.int 129
.int 2
.int 1056
.int 1
.int 0
.int 0
.int 523
.int 1
.int 0
.skip 4,0
.skip 224,0
.int Lt_010B
.long 0
.int 17
.int -1
.long 0
.int 0
.int 1
.int 528
.int 1
.int 0
.skip 4,0
.skip 240,0
.int Lt_010C
.long 0
.int 17
.int -1
.long 0
.int 0
.int 1
.int 527
.int 1
.int 0
.skip 4,0
.skip 240,0
.int Lt_010D
.long 0
.int 17
.int -1
.long 0
.int 128
.int 1
.int 517
.int 1
.int 0
.skip 4,0
.skip 240,0
.int Lt_010E
.long 0
.int 17
.int -1
.long 0
.int 0
.int 1
.int 520
.int 1
.int 0
.skip 4,0
.skip 240,0
.int Lt_010F
.long 0
.int 17
.int -1
.long 0
.int 0
.int 1
.int 523
.int 1
.int 0
.skip 4,0
.skip 240,0
.int Lt_0110
.long 0
.int 17
.int -1
.long 0
.int 128
.int 1
.int 525
.int 1
.int 0
.skip 4,0
.skip 240,0
.int Lt_0111
.int Lt_0112
.int 17
.int -1
.long 0
.int 65
.int 2
.int 529
.int 2
.int 0
.skip 4,0
.int 520
.int 1
.int 0
.skip 4,0
.skip 224,0
.int Lt_0111
.int Lt_0113
.int 7
.int -1
.long 0
.int 129
.int 2
.int 519
.int 2
.int 0
.skip 4,0
.int 520
.int 1
.int 0
.skip 4,0
.skip 224,0
.int Lt_0114
.int Lt_0115
.int 0
.int -1
.long 0
.int 129
.int 2
.int 529
.int 2
.int 0
.skip 4,0
.int 520
.int 1
.int 0
.skip 4,0
.skip 224,0
.int Lt_0116
.int Lt_0117
.int 17
.int -1
.long 0
.int 65
.int 2
.int 529
.int 2
.int 0
.skip 4,0
.int 520
.int 1
.int 0
.skip 4,0
.skip 224,0
.int Lt_0116
.int Lt_0118
.int 7
.int -1
.long 0
.int 129
.int 2
.int 519
.int 2
.int 0
.skip 4,0
.int 520
.int 1
.int 0
.skip 4,0
.skip 224,0
.int Lt_0119
.int Lt_011A
.int 17
.int -1
.long 0
.int 64
.int 1
.int 520
.int 1
.int 0
.skip 4,0
.skip 240,0
.int Lt_011B
.int Lt_011C
.int 7
.int -1
.long 0
.int 128
.int 1
.int 520
.int 1
.int 0
.skip 4,0
.skip 240,0
.int Lt_011D
.long 0
.int 17
.int -1
.long 0
.int 0
.int 2
.int 529
.int 2
.int 0
.skip 4,0
.int 523
.int 1
.int -1
.int 0
.skip 224,0
.int Lt_011E
.long 0
.int 7
.int -1
.long 0
.int 0
.int 2
.int 519
.int 2
.int 0
.skip 4,0
.int 523
.int 1
.int -1
.int 0
.skip 224,0
.int Lt_011F
.long 0
.int 17
.int -1
.long 0
.int 0
.int 2
.int 529
.int 2
.int 0
.skip 4,0
.int 523
.int 1
.int -1
.int 0
.skip 224,0
.int Lt_0120
.long 0
.int 7
.int -1
.long 0
.int 0
.int 2
.int 519
.int 2
.int 0
.skip 4,0
.int 523
.int 1
.int -1
.int 0
.skip 224,0
.int Lt_0121
.int Lt_0121
.int 16
.int -1
.long 0
.int 0
.int 1
.int 529
.int 2
.int 0
.skip 4,0
.skip 240,0
.int Lt_0122
.int Lt_0122
.int 15
.int -1
.long 0
.int 0
.int 1
.int 529
.int 2
.int 0
.skip 4,0
.skip 240,0
.int Lt_0123
.int Lt_0123
.int 5
.int -1
.long 0
.int 128
.int 1
.int 529
.int 2
.int 0
.skip 4,0
.skip 240,0
.int Lt_0124
.long 0
.int 11
.int -1
.long 0
.int 0
.int 1
.int 529
.int 2
.int 0
.skip 4,0
.skip 240,0
.int Lt_0125
.int Lt_0125
.int 13
.int -1
.long 0
.int 128
.int 1
.int 529
.int 2
.int 0
.skip 4,0
.skip 240,0
.int Lt_0126
.int Lt_0126
.int 16
.int -1
.long 0
.int 128
.int 1
.int 525
.int 1
.int 0
.skip 4,0
.skip 240,0
.int Lt_0127
.int Lt_0127
.int 15
.int -1
.long 0
.int 128
.int 1
.int 523
.int 1
.int 0
.skip 4,0
.skip 240,0
.int Lt_0128
.int Lt_0128
.int 11
.int -1
.long 0
.int 128
.int 1
.int 527
.int 1
.int 0
.skip 4,0
.skip 240,0
.int Lt_0129
.int Lt_0129
.int 13
.int -1
.long 0
.int 128
.int 1
.int 528
.int 1
.int 0
.skip 4,0
.skip 240,0
.long 0
.skip 280,0

.section .rodata
.balign 4
Lt_005D:	.ascii	"fb_StrInit\0"
.balign 4
Lt_005E:	.ascii	"fb_WstrAssignToA_Init\0"
.balign 4
Lt_005F:	.ascii	"fb_StrAssign\0"
.balign 4
Lt_0060:	.ascii	"fb_WstrAssign\0"
.balign 4
Lt_0061:	.ascii	"fb_WstrAssignFromA\0"
.balign 4
Lt_0062:	.ascii	"fb_WstrAssignToA\0"
.balign 4
Lt_0063:	.ascii	"fb_StrDelete\0"
.balign 4
Lt_0064:	.ascii	"fb_hStrDelTemp\0"
.balign 4
Lt_0065:	.ascii	"fb_WstrDelete\0"
.balign 4
Lt_0066:	.ascii	"fb_StrConcat\0"
.balign 4
Lt_0067:	.ascii	"fb_StrConcatByref\0"
.balign 4
Lt_0068:	.ascii	"fb_WstrConcat\0"
.balign 4
Lt_0069:	.ascii	"fb_WstrConcatWA\0"
.balign 4
Lt_006A:	.ascii	"fb_WstrConcatAW\0"
.balign 4
Lt_006B:	.ascii	"fb_StrCompare\0"
.balign 4
Lt_006C:	.ascii	"fb_WstrCompare\0"
.balign 4
Lt_006D:	.ascii	"fb_StrConcatAssign\0"
.balign 4
Lt_006E:	.ascii	"fb_WstrConcatAssign\0"
.balign 4
Lt_006F:	.ascii	"fb_StrAllocTempResult\0"
.balign 4
Lt_0070:	.ascii	"fb_StrAllocTempDescF\0"
.balign 4
Lt_0071:	.ascii	"fb_StrAllocTempDescZ\0"
.balign 4
Lt_0072:	.ascii	"fb_StrAllocTempDescZEx\0"
.balign 4
Lt_0073:	.ascii	"fb_WstrAlloc\0"
.balign 4
Lt_0074:	.ascii	"fb_BoolToStr\0"
.balign 4
Lt_0075:	.ascii	"fb_IntToStr\0"
.balign 4
Lt_0076:	.ascii	"fb_IntToStrQB\0"
.balign 4
Lt_0077:	.ascii	"fb_BoolToWstr\0"
.balign 4
Lt_0078:	.ascii	"fb_IntToWstr\0"
.balign 4
Lt_0079:	.ascii	"fb_UIntToStr\0"
.balign 4
Lt_007A:	.ascii	"fb_UIntToStrQB\0"
.balign 4
Lt_007B:	.ascii	"fb_UIntToWstr\0"
.balign 4
Lt_007C:	.ascii	"fb_LongintToStr\0"
.balign 4
Lt_007D:	.ascii	"fb_LongintToStrQB\0"
.balign 4
Lt_007E:	.ascii	"fb_LongintToWstr\0"
.balign 4
Lt_007F:	.ascii	"fb_ULongintToStr\0"
.balign 4
Lt_0080:	.ascii	"fb_ULongintToStrQB\0"
.balign 4
Lt_0081:	.ascii	"fb_ULongintToWstr\0"
.balign 4
Lt_0082:	.ascii	"fb_FloatToStr\0"
.balign 4
Lt_0083:	.ascii	"fb_FloatToStrQB\0"
.balign 4
Lt_0084:	.ascii	"fb_FloatToWstr\0"
.balign 4
Lt_0085:	.ascii	"fb_DoubleToStr\0"
.balign 4
Lt_0086:	.ascii	"fb_DoubleToStrQB\0"
.balign 4
Lt_0087:	.ascii	"fb_DoubleToWstr\0"
.balign 4
Lt_0088:	.ascii	"fb_WstrToStr\0"
.balign 4
Lt_0089:	.ascii	"fb_StrToWstr\0"
.balign 4
Lt_008A:	.ascii	"fb_StrMid\0"
.balign 4
Lt_008B:	.ascii	"fb_WstrMid\0"
.balign 4
Lt_008C:	.ascii	"fb_StrAssignMid\0"
.balign 4
Lt_008D:	.ascii	"fb_WstrAssignMid\0"
.balign 4
Lt_008E:	.ascii	"fb_StrFill1\0"
.balign 4
Lt_008F:	.ascii	"fb_WstrFill1\0"
.balign 4
Lt_0090:	.ascii	"fb_StrFill2\0"
.balign 4
Lt_0091:	.ascii	"fb_WstrFill2\0"
.balign 4
Lt_0092:	.ascii	"fb_StrLen\0"
.balign 4
Lt_0093:	.ascii	"fb_WstrLen\0"
.balign 4
Lt_0094:	.ascii	"fb_StrLset\0"
.balign 4
Lt_0095:	.ascii	"fb_WstrLset\0"
.balign 4
Lt_0096:	.ascii	"fb_StrRset\0"
.balign 4
Lt_0097:	.ascii	"fb_WstrRset\0"
.balign 4
Lt_0098:	.ascii	"fb_ASC\0"
.balign 4
Lt_0099:	.ascii	"fb_WstrAsc\0"
.balign 4
Lt_009A:	.ascii	"fb_CHR\0"
.balign 4
Lt_009B:	.ascii	"fb_WstrChr\0"
.balign 4
Lt_009C:	.ascii	"fb_StrInstr\0"
.balign 4
Lt_009D:	.ascii	"fb_WstrInstr\0"
.balign 4
Lt_009E:	.ascii	"fb_StrInstrAny\0"
.balign 4
Lt_009F:	.ascii	"fb_WstrInstrAny\0"
.balign 4
Lt_00A0:	.ascii	"fb_StrInstrRev\0"
.balign 4
Lt_00A1:	.ascii	"fb_WstrInstrRev\0"
.balign 4
Lt_00A2:	.ascii	"fb_StrInstrRevAny\0"
.balign 4
Lt_00A3:	.ascii	"fb_WstrInstrRevAny\0"
.balign 4
Lt_00A4:	.ascii	"fb_TRIM\0"
.balign 4
Lt_00A5:	.ascii	"fb_WstrTrim\0"
.balign 4
Lt_00A6:	.ascii	"fb_TrimAny\0"
.balign 4
Lt_00A7:	.ascii	"fb_WstrTrimAny\0"
.balign 4
Lt_00A8:	.ascii	"fb_TrimEx\0"
.balign 4
Lt_00A9:	.ascii	"fb_WstrTrimEx\0"
.balign 4
Lt_00AA:	.ascii	"fb_RTRIM\0"
.balign 4
Lt_00AB:	.ascii	"fb_WstrRTrim\0"
.balign 4
Lt_00AC:	.ascii	"fb_RTrimAny\0"
.balign 4
Lt_00AD:	.ascii	"fb_WstrRTrimAny\0"
.balign 4
Lt_00AE:	.ascii	"fb_RTrimEx\0"
.balign 4
Lt_00AF:	.ascii	"fb_WstrRTrimEx\0"
.balign 4
Lt_00B0:	.ascii	"fb_LTRIM\0"
.balign 4
Lt_00B1:	.ascii	"fb_WstrLTrim\0"
.balign 4
Lt_00B2:	.ascii	"fb_LTrimAny\0"
.balign 4
Lt_00B3:	.ascii	"fb_WstrLTrimAny\0"
.balign 4
Lt_00B4:	.ascii	"fb_LTrimEx\0"
.balign 4
Lt_00B5:	.ascii	"fb_WstrLTrimEx\0"
.balign 4
Lt_00B6:	.ascii	"fb_StrSwap\0"
.balign 4
Lt_00B7:	.ascii	"fb_WstrSwap\0"
.balign 4
Lt_00B8:	.ascii	"val\0"
.balign 4
Lt_00B9:	.ascii	"fb_VAL\0"
.balign 4
Lt_00BA:	.ascii	"fb_WstrVal\0"
.balign 4
Lt_00BB:	.ascii	"fb_VALBOOL\0"
.balign 4
Lt_00BC:	.ascii	"fb_WstrValBool\0"
.balign 4
Lt_00BD:	.ascii	"valint\0"
.balign 4
Lt_00BE:	.ascii	"fb_VALINT\0"
.balign 4
Lt_00BF:	.ascii	"fb_WstrValInt\0"
.balign 4
Lt_00C0:	.ascii	"valuint\0"
.balign 4
Lt_00C1:	.ascii	"fb_VALUINT\0"
.balign 4
Lt_00C2:	.ascii	"fb_WstrValUInt\0"
.balign 4
Lt_00C3:	.ascii	"vallng\0"
.balign 4
Lt_00C4:	.ascii	"fb_VALLNG\0"
.balign 4
Lt_00C5:	.ascii	"fb_WstrValLng\0"
.balign 4
Lt_00C6:	.ascii	"valulng\0"
.balign 4
Lt_00C7:	.ascii	"fb_VALULNG\0"
.balign 4
Lt_00C8:	.ascii	"fb_WstrValULng\0"
.balign 4
Lt_00C9:	.ascii	"hex\0"
.balign 4
Lt_00CA:	.ascii	"fb_HEX_b\0"
.balign 4
Lt_00CB:	.ascii	"fb_HEX_s\0"
.balign 4
Lt_00CC:	.ascii	"fb_HEX_i\0"
.balign 4
Lt_00CD:	.ascii	"fb_HEX_l\0"
.balign 4
Lt_00CE:	.ascii	"fb_HEX_p\0"
.balign 4
Lt_00CF:	.ascii	"fb_HEXEx_b\0"
.balign 4
Lt_00D0:	.ascii	"fb_HEXEx_s\0"
.balign 4
Lt_00D1:	.ascii	"fb_HEXEx_i\0"
.balign 4
Lt_00D2:	.ascii	"fb_HEXEx_l\0"
.balign 4
Lt_00D3:	.ascii	"fb_HEXEx_p\0"
.balign 4
Lt_00D4:	.ascii	"whex\0"
.balign 4
Lt_00D5:	.ascii	"fb_WstrHex_b\0"
.balign 4
Lt_00D6:	.ascii	"fb_WstrHex_s\0"
.balign 4
Lt_00D7:	.ascii	"fb_WstrHex_i\0"
.balign 4
Lt_00D8:	.ascii	"fb_WstrHex_l\0"
.balign 4
Lt_00D9:	.ascii	"fb_WstrHex_p\0"
.balign 4
Lt_00DA:	.ascii	"fb_WstrHexEx_b\0"
.balign 4
Lt_00DB:	.ascii	"fb_WstrHexEx_s\0"
.balign 4
Lt_00DC:	.ascii	"fb_WstrHexEx_i\0"
.balign 4
Lt_00DD:	.ascii	"fb_WstrHexEx_l\0"
.balign 4
Lt_00DE:	.ascii	"fb_WstrHexEx_p\0"
.balign 4
Lt_00DF:	.ascii	"oct\0"
.balign 4
Lt_00E0:	.ascii	"fb_OCT_b\0"
.balign 4
Lt_00E1:	.ascii	"fb_OCT_s\0"
.balign 4
Lt_00E2:	.ascii	"fb_OCT_i\0"
.balign 4
Lt_00E3:	.ascii	"fb_OCT_l\0"
.balign 4
Lt_00E4:	.ascii	"fb_OCT_p\0"
.balign 4
Lt_00E5:	.ascii	"fb_OCTEx_b\0"
.balign 4
Lt_00E6:	.ascii	"fb_OCTEx_s\0"
.balign 4
Lt_00E7:	.ascii	"fb_OCTEx_i\0"
.balign 4
Lt_00E8:	.ascii	"fb_OCTEx_l\0"
.balign 4
Lt_00E9:	.ascii	"fb_OCTEx_p\0"
.balign 4
Lt_00EA:	.ascii	"woct\0"
.balign 4
Lt_00EB:	.ascii	"fb_WstrOct_b\0"
.balign 4
Lt_00EC:	.ascii	"fb_WstrOct_s\0"
.balign 4
Lt_00ED:	.ascii	"fb_WstrOct_i\0"
.balign 4
Lt_00EE:	.ascii	"fb_WstrOct_l\0"
.balign 4
Lt_00EF:	.ascii	"fb_WstrOct_p\0"
.balign 4
Lt_00F0:	.ascii	"fb_WstrOctEx_b\0"
.balign 4
Lt_00F1:	.ascii	"fb_WstrOctEx_s\0"
.balign 4
Lt_00F2:	.ascii	"fb_WstrOctEx_i\0"
.balign 4
Lt_00F3:	.ascii	"fb_WstrOctEx_l\0"
.balign 4
Lt_00F4:	.ascii	"fb_WstrOctEx_p\0"
.balign 4
Lt_00F5:	.ascii	"bin\0"
.balign 4
Lt_00F6:	.ascii	"fb_BIN_b\0"
.balign 4
Lt_00F7:	.ascii	"fb_BIN_s\0"
.balign 4
Lt_00F8:	.ascii	"fb_BIN_i\0"
.balign 4
Lt_00F9:	.ascii	"fb_BIN_l\0"
.balign 4
Lt_00FA:	.ascii	"fb_BIN_p\0"
.balign 4
Lt_00FB:	.ascii	"fb_BINEx_b\0"
.balign 4
Lt_00FC:	.ascii	"fb_BINEx_s\0"
.balign 4
Lt_00FD:	.ascii	"fb_BINEx_i\0"
.balign 4
Lt_00FE:	.ascii	"fb_BINEx_l\0"
.balign 4
Lt_00FF:	.ascii	"fb_BINEx_p\0"
.balign 4
Lt_0100:	.ascii	"wbin\0"
.balign 4
Lt_0101:	.ascii	"fb_WstrBin_b\0"
.balign 4
Lt_0102:	.ascii	"fb_WstrBin_s\0"
.balign 4
Lt_0103:	.ascii	"fb_WstrBin_i\0"
.balign 4
Lt_0104:	.ascii	"fb_WstrBin_l\0"
.balign 4
Lt_0105:	.ascii	"fb_WstrBin_p\0"
.balign 4
Lt_0106:	.ascii	"fb_WstrBinEx_b\0"
.balign 4
Lt_0107:	.ascii	"fb_WstrBinEx_s\0"
.balign 4
Lt_0108:	.ascii	"fb_WstrBinEx_i\0"
.balign 4
Lt_0109:	.ascii	"fb_WstrBinEx_l\0"
.balign 4
Lt_010A:	.ascii	"fb_WstrBinEx_p\0"
.balign 4
Lt_010B:	.ascii	"fb_MKD\0"
.balign 4
Lt_010C:	.ascii	"fb_MKS\0"
.balign 4
Lt_010D:	.ascii	"fb_MKSHORT\0"
.balign 4
Lt_010E:	.ascii	"fb_MKI\0"
.balign 4
Lt_010F:	.ascii	"fb_MKL\0"
.balign 4
Lt_0110:	.ascii	"fb_MKLONGINT\0"
.balign 4
Lt_0111:	.ascii	"left\0"
.balign 4
Lt_0112:	.ascii	"fb_LEFT\0"
.balign 4
Lt_0113:	.ascii	"fb_WstrLeft\0"
.balign 4
Lt_0114:	.ascii	"fb_LeftSelf\0"
.balign 4
Lt_0115:	.ascii	"fb_LEFTSELF\0"
.balign 4
Lt_0116:	.ascii	"right\0"
.balign 4
Lt_0117:	.ascii	"fb_RIGHT\0"
.balign 4
Lt_0118:	.ascii	"fb_WstrRight\0"
.balign 4
Lt_0119:	.ascii	"space\0"
.balign 4
Lt_011A:	.ascii	"fb_SPACE\0"
.balign 4
Lt_011B:	.ascii	"wspace\0"
.balign 4
Lt_011C:	.ascii	"fb_WstrSpace\0"
.balign 4
Lt_011D:	.ascii	"fb_StrLcase2\0"
.balign 4
Lt_011E:	.ascii	"fb_WstrLcase2\0"
.balign 4
Lt_011F:	.ascii	"fb_StrUcase2\0"
.balign 4
Lt_0120:	.ascii	"fb_WstrUcase2\0"
.balign 4
Lt_0121:	.ascii	"fb_CVD\0"
.balign 4
Lt_0122:	.ascii	"fb_CVS\0"
.balign 4
Lt_0123:	.ascii	"fb_CVSHORT\0"
.balign 4
Lt_0124:	.ascii	"fb_CVL\0"
.balign 4
Lt_0125:	.ascii	"fb_CVLONGINT\0"
.balign 4
Lt_0126:	.ascii	"fb_CVDFROMLONGINT\0"
.balign 4
Lt_0127:	.ascii	"fb_CVSFROML\0"
.balign 4
Lt_0128:	.ascii	"fb_CVLFROMS\0"
.balign 4
Lt_0129:	.ascii	"fb_CVLONGINTFROMD\0"
.balign 4
Lt_01F3:	.ascii	" \0"
.balign 8
Lt_022B:	.quad	0x0000000000000000
.balign 4
Lt_02E4:	.ascii	"at parameter: \0"

.section .ctors, "aw", @progbits
.int fb_ctor__rtlzstring
